
led_4cube.elf:     file format elf32-avr

Sections:
Idx Name          Size      VMA       LMA       File off  Algn
  0 .data         00000028  00800100  00000cc8  00000d3c  2**0
                  CONTENTS, ALLOC, LOAD, DATA
  1 .text         00000cc8  00000000  00000000  00000074  2**1
                  CONTENTS, ALLOC, LOAD, READONLY, CODE
  2 .comment      00000011  00000000  00000000  00000d64  2**0
                  CONTENTS, READONLY
  3 .note.gnu.avr.deviceinfo 00000040  00000000  00000000  00000d78  2**2
                  CONTENTS, READONLY
  4 .debug_info   000005f4  00000000  00000000  00000db8  2**0
                  CONTENTS, READONLY, DEBUGGING
  5 .debug_abbrev 000005a2  00000000  00000000  000013ac  2**0
                  CONTENTS, READONLY, DEBUGGING
  6 .debug_line   0000001a  00000000  00000000  0000194e  2**0
                  CONTENTS, READONLY, DEBUGGING
  7 .debug_str    00000208  00000000  00000000  00001968  2**0
                  CONTENTS, READONLY, DEBUGGING

Disassembly of section .text:

00000000 <__vectors>:
   0:	0c 94 34 00 	jmp	0x68	; 0x68 <__ctors_end>
   4:	0c 94 49 00 	jmp	0x92	; 0x92 <__bad_interrupt>
   8:	0c 94 49 00 	jmp	0x92	; 0x92 <__bad_interrupt>
   c:	0c 94 49 00 	jmp	0x92	; 0x92 <__bad_interrupt>
  10:	0c 94 49 00 	jmp	0x92	; 0x92 <__bad_interrupt>
  14:	0c 94 49 00 	jmp	0x92	; 0x92 <__bad_interrupt>
  18:	0c 94 49 00 	jmp	0x92	; 0x92 <__bad_interrupt>
  1c:	0c 94 49 00 	jmp	0x92	; 0x92 <__bad_interrupt>
  20:	0c 94 49 00 	jmp	0x92	; 0x92 <__bad_interrupt>
  24:	0c 94 49 00 	jmp	0x92	; 0x92 <__bad_interrupt>
  28:	0c 94 49 00 	jmp	0x92	; 0x92 <__bad_interrupt>
  2c:	0c 94 49 00 	jmp	0x92	; 0x92 <__bad_interrupt>
  30:	0c 94 49 00 	jmp	0x92	; 0x92 <__bad_interrupt>
  34:	0c 94 49 00 	jmp	0x92	; 0x92 <__bad_interrupt>
  38:	0c 94 49 00 	jmp	0x92	; 0x92 <__bad_interrupt>
  3c:	0c 94 49 00 	jmp	0x92	; 0x92 <__bad_interrupt>
  40:	0c 94 49 00 	jmp	0x92	; 0x92 <__bad_interrupt>
  44:	0c 94 49 00 	jmp	0x92	; 0x92 <__bad_interrupt>
  48:	0c 94 49 00 	jmp	0x92	; 0x92 <__bad_interrupt>
  4c:	0c 94 49 00 	jmp	0x92	; 0x92 <__bad_interrupt>
  50:	0c 94 49 00 	jmp	0x92	; 0x92 <__bad_interrupt>
  54:	0c 94 49 00 	jmp	0x92	; 0x92 <__bad_interrupt>
  58:	0c 94 49 00 	jmp	0x92	; 0x92 <__bad_interrupt>
  5c:	0c 94 49 00 	jmp	0x92	; 0x92 <__bad_interrupt>
  60:	0c 94 49 00 	jmp	0x92	; 0x92 <__bad_interrupt>
  64:	0c 94 49 00 	jmp	0x92	; 0x92 <__bad_interrupt>

00000068 <__ctors_end>:
  68:	11 24       	eor	r1, r1
  6a:	1f be       	out	0x3f, r1	; 63
  6c:	cf ef       	ldi	r28, 0xFF	; 255
  6e:	d8 e0       	ldi	r29, 0x08	; 8
  70:	de bf       	out	0x3e, r29	; 62
  72:	cd bf       	out	0x3d, r28	; 61

00000074 <__do_copy_data>:
  74:	11 e0       	ldi	r17, 0x01	; 1
  76:	a0 e0       	ldi	r26, 0x00	; 0
  78:	b1 e0       	ldi	r27, 0x01	; 1
  7a:	e8 ec       	ldi	r30, 0xC8	; 200
  7c:	fc e0       	ldi	r31, 0x0C	; 12
  7e:	02 c0       	rjmp	.+4      	; 0x84 <__do_copy_data+0x10>
  80:	05 90       	lpm	r0, Z+
  82:	0d 92       	st	X+, r0
  84:	a8 32       	cpi	r26, 0x28	; 40
  86:	b1 07       	cpc	r27, r17
  88:	d9 f7       	brne	.-10     	; 0x80 <__do_copy_data+0xc>
  8a:	0e 94 5d 00 	call	0xba	; 0xba <main>
  8e:	0c 94 62 06 	jmp	0xcc4	; 0xcc4 <_exit>

00000092 <__bad_interrupt>:
  92:	0c 94 00 00 	jmp	0	; 0x0 <__vectors>

00000096 <turnEverythingOff.1735>:
  96:	8f ef       	ldi	r24, 0xFF	; 255
  98:	8b b9       	out	0x0b, r24	; 11
  9a:	90 e3       	ldi	r25, 0x30	; 48
  9c:	98 b9       	out	0x08, r25	; 8
  9e:	85 b9       	out	0x05, r24	; 5
  a0:	08 95       	ret

000000a2 <turnEverythingOn.1737>:
  a2:	1b b8       	out	0x0b, r1	; 11
  a4:	8f e0       	ldi	r24, 0x0F	; 15
  a6:	88 b9       	out	0x08, r24	; 8
  a8:	15 b8       	out	0x05, r1	; 5
  aa:	08 95       	ret

000000ac <turnColumnsOff.1739>:
  ac:	9f ef       	ldi	r25, 0xFF	; 255
  ae:	9b b9       	out	0x0b, r25	; 11
  b0:	88 b1       	in	r24, 0x08	; 8
  b2:	80 63       	ori	r24, 0x30	; 48
  b4:	88 b9       	out	0x08, r24	; 8
  b6:	95 b9       	out	0x05, r25	; 5
  b8:	08 95       	ret

000000ba <main>:
  ba:	8f ef       	ldi	r24, 0xFF	; 255
  bc:	8a b9       	out	0x0a, r24	; 10
  be:	87 b1       	in	r24, 0x07	; 7
  c0:	8f 63       	ori	r24, 0x3F	; 63
  c2:	87 b9       	out	0x07, r24	; 7
  c4:	84 b1       	in	r24, 0x04	; 4
  c6:	8f 63       	ori	r24, 0x3F	; 63
  c8:	84 b9       	out	0x04, r24	; 4
  ca:	11 e0       	ldi	r17, 0x01	; 1
  cc:	d2 e0       	ldi	r29, 0x02	; 2
  ce:	04 e0       	ldi	r16, 0x04	; 4
  d0:	c8 e0       	ldi	r28, 0x08	; 8
  d2:	55 24       	eor	r5, r5
  d4:	53 94       	inc	r5
  d6:	72 e0       	ldi	r23, 0x02	; 2
  d8:	67 2e       	mov	r6, r23
  da:	e4 e0       	ldi	r30, 0x04	; 4
  dc:	7e 2e       	mov	r7, r30
  de:	f8 e0       	ldi	r31, 0x08	; 8
  e0:	8f 2e       	mov	r8, r31
  e2:	a0 e1       	ldi	r26, 0x10	; 16
  e4:	fa 2e       	mov	r15, r26
  e6:	b0 e2       	ldi	r27, 0x20	; 32
  e8:	eb 2e       	mov	r14, r27
  ea:	80 e8       	ldi	r24, 0x80	; 128
  ec:	98 2e       	mov	r9, r24
  ee:	0e 94 4b 00 	call	0x96	; 0x96 <turnEverythingOff.1735>
  f2:	6e e1       	ldi	r22, 0x1E	; 30
  f4:	c6 2e       	mov	r12, r22
  f6:	d1 2c       	mov	r13, r1
  f8:	0e 94 51 00 	call	0xa2	; 0xa2 <turnEverythingOn.1737>
  fc:	2f ef       	ldi	r18, 0xFF	; 255
  fe:	33 ec       	ldi	r19, 0xC3	; 195
 100:	49 e0       	ldi	r20, 0x09	; 9
 102:	21 50       	subi	r18, 0x01	; 1
 104:	30 40       	sbci	r19, 0x00	; 0
 106:	40 40       	sbci	r20, 0x00	; 0
 108:	e1 f7       	brne	.-8      	; 0x102 <main+0x48>
 10a:	00 c0       	rjmp	.+0      	; 0x10c <main+0x52>
 10c:	00 00       	nop
 10e:	0e 94 4b 00 	call	0x96	; 0x96 <turnEverythingOff.1735>
 112:	5f ef       	ldi	r21, 0xFF	; 255
 114:	82 e5       	ldi	r24, 0x52	; 82
 116:	97 e0       	ldi	r25, 0x07	; 7
 118:	51 50       	subi	r21, 0x01	; 1
 11a:	80 40       	sbci	r24, 0x00	; 0
 11c:	90 40       	sbci	r25, 0x00	; 0
 11e:	e1 f7       	brne	.-8      	; 0x118 <main+0x5e>
 120:	00 c0       	rjmp	.+0      	; 0x122 <main+0x68>
 122:	00 00       	nop
 124:	e1 e0       	ldi	r30, 0x01	; 1
 126:	ce 1a       	sub	r12, r30
 128:	d1 08       	sbc	r13, r1
 12a:	31 f7       	brne	.-52     	; 0xf8 <main+0x3e>
 12c:	0e 94 51 00 	call	0xa2	; 0xa2 <turnEverythingOn.1737>
 130:	ff ef       	ldi	r31, 0xFF	; 255
 132:	23 ec       	ldi	r18, 0xC3	; 195
 134:	39 e0       	ldi	r19, 0x09	; 9
 136:	f1 50       	subi	r31, 0x01	; 1
 138:	20 40       	sbci	r18, 0x00	; 0
 13a:	30 40       	sbci	r19, 0x00	; 0
 13c:	e1 f7       	brne	.-8      	; 0x136 <main+0x7c>
 13e:	00 c0       	rjmp	.+0      	; 0x140 <main+0x86>
 140:	00 00       	nop
 142:	54 e0       	ldi	r21, 0x04	; 4
 144:	c5 2e       	mov	r12, r21
 146:	d1 2c       	mov	r13, r1
 148:	0e 94 51 00 	call	0xa2	; 0xa2 <turnEverythingOn.1737>
 14c:	18 b8       	out	0x08, r1	; 8
 14e:	4f ef       	ldi	r20, 0xFF	; 255
 150:	53 ec       	ldi	r21, 0xC3	; 195
 152:	89 e0       	ldi	r24, 0x09	; 9
 154:	41 50       	subi	r20, 0x01	; 1
 156:	50 40       	sbci	r21, 0x00	; 0
 158:	80 40       	sbci	r24, 0x00	; 0
 15a:	e1 f7       	brne	.-8      	; 0x154 <main+0x9a>
 15c:	00 c0       	rjmp	.+0      	; 0x15e <main+0xa4>
 15e:	00 00       	nop
 160:	18 b8       	out	0x08, r1	; 8
 162:	9f ef       	ldi	r25, 0xFF	; 255
 164:	e3 ec       	ldi	r30, 0xC3	; 195
 166:	f9 e0       	ldi	r31, 0x09	; 9
 168:	91 50       	subi	r25, 0x01	; 1
 16a:	e0 40       	sbci	r30, 0x00	; 0
 16c:	f0 40       	sbci	r31, 0x00	; 0
 16e:	e1 f7       	brne	.-8      	; 0x168 <main+0xae>
 170:	00 c0       	rjmp	.+0      	; 0x172 <main+0xb8>
 172:	00 00       	nop
 174:	18 b8       	out	0x08, r1	; 8
 176:	2f ef       	ldi	r18, 0xFF	; 255
 178:	33 ec       	ldi	r19, 0xC3	; 195
 17a:	49 e0       	ldi	r20, 0x09	; 9
 17c:	21 50       	subi	r18, 0x01	; 1
 17e:	30 40       	sbci	r19, 0x00	; 0
 180:	40 40       	sbci	r20, 0x00	; 0
 182:	e1 f7       	brne	.-8      	; 0x17c <main+0xc2>
 184:	00 c0       	rjmp	.+0      	; 0x186 <main+0xcc>
 186:	00 00       	nop
 188:	18 b8       	out	0x08, r1	; 8
 18a:	5f ef       	ldi	r21, 0xFF	; 255
 18c:	83 ec       	ldi	r24, 0xC3	; 195
 18e:	99 e0       	ldi	r25, 0x09	; 9
 190:	51 50       	subi	r21, 0x01	; 1
 192:	80 40       	sbci	r24, 0x00	; 0
 194:	90 40       	sbci	r25, 0x00	; 0
 196:	e1 f7       	brne	.-8      	; 0x190 <main+0xd6>
 198:	00 c0       	rjmp	.+0      	; 0x19a <main+0xe0>
 19a:	00 00       	nop
 19c:	18 b9       	out	0x08, r17	; 8
 19e:	ef ef       	ldi	r30, 0xFF	; 255
 1a0:	f3 ec       	ldi	r31, 0xC3	; 195
 1a2:	29 e0       	ldi	r18, 0x09	; 9
 1a4:	e1 50       	subi	r30, 0x01	; 1
 1a6:	f0 40       	sbci	r31, 0x00	; 0
 1a8:	20 40       	sbci	r18, 0x00	; 0
 1aa:	e1 f7       	brne	.-8      	; 0x1a4 <main+0xea>
 1ac:	00 c0       	rjmp	.+0      	; 0x1ae <main+0xf4>
 1ae:	00 00       	nop
 1b0:	d8 b9       	out	0x08, r29	; 8
 1b2:	3f ef       	ldi	r19, 0xFF	; 255
 1b4:	43 ec       	ldi	r20, 0xC3	; 195
 1b6:	59 e0       	ldi	r21, 0x09	; 9
 1b8:	31 50       	subi	r19, 0x01	; 1
 1ba:	40 40       	sbci	r20, 0x00	; 0
 1bc:	50 40       	sbci	r21, 0x00	; 0
 1be:	e1 f7       	brne	.-8      	; 0x1b8 <main+0xfe>
 1c0:	00 c0       	rjmp	.+0      	; 0x1c2 <main+0x108>
 1c2:	00 00       	nop
 1c4:	08 b9       	out	0x08, r16	; 8
 1c6:	8f ef       	ldi	r24, 0xFF	; 255
 1c8:	93 ec       	ldi	r25, 0xC3	; 195
 1ca:	e9 e0       	ldi	r30, 0x09	; 9
 1cc:	81 50       	subi	r24, 0x01	; 1
 1ce:	90 40       	sbci	r25, 0x00	; 0
 1d0:	e0 40       	sbci	r30, 0x00	; 0
 1d2:	e1 f7       	brne	.-8      	; 0x1cc <main+0x112>
 1d4:	00 c0       	rjmp	.+0      	; 0x1d6 <main+0x11c>
 1d6:	00 00       	nop
 1d8:	c8 b9       	out	0x08, r28	; 8
 1da:	ff ef       	ldi	r31, 0xFF	; 255
 1dc:	23 ec       	ldi	r18, 0xC3	; 195
 1de:	39 e0       	ldi	r19, 0x09	; 9
 1e0:	f1 50       	subi	r31, 0x01	; 1
 1e2:	20 40       	sbci	r18, 0x00	; 0
 1e4:	30 40       	sbci	r19, 0x00	; 0
 1e6:	e1 f7       	brne	.-8      	; 0x1e0 <main+0x126>
 1e8:	00 c0       	rjmp	.+0      	; 0x1ea <main+0x130>
 1ea:	00 00       	nop
 1ec:	18 b8       	out	0x08, r1	; 8
 1ee:	4f ef       	ldi	r20, 0xFF	; 255
 1f0:	53 ec       	ldi	r21, 0xC3	; 195
 1f2:	89 e0       	ldi	r24, 0x09	; 9
 1f4:	41 50       	subi	r20, 0x01	; 1
 1f6:	50 40       	sbci	r21, 0x00	; 0
 1f8:	80 40       	sbci	r24, 0x00	; 0
 1fa:	e1 f7       	brne	.-8      	; 0x1f4 <main+0x13a>
 1fc:	00 c0       	rjmp	.+0      	; 0x1fe <main+0x144>
 1fe:	00 00       	nop
 200:	18 b8       	out	0x08, r1	; 8
 202:	9f ef       	ldi	r25, 0xFF	; 255
 204:	e3 ec       	ldi	r30, 0xC3	; 195
 206:	f9 e0       	ldi	r31, 0x09	; 9
 208:	91 50       	subi	r25, 0x01	; 1
 20a:	e0 40       	sbci	r30, 0x00	; 0
 20c:	f0 40       	sbci	r31, 0x00	; 0
 20e:	e1 f7       	brne	.-8      	; 0x208 <main+0x14e>
 210:	00 c0       	rjmp	.+0      	; 0x212 <main+0x158>
 212:	00 00       	nop
 214:	18 b8       	out	0x08, r1	; 8
 216:	2f ef       	ldi	r18, 0xFF	; 255
 218:	33 ec       	ldi	r19, 0xC3	; 195
 21a:	49 e0       	ldi	r20, 0x09	; 9
 21c:	21 50       	subi	r18, 0x01	; 1
 21e:	30 40       	sbci	r19, 0x00	; 0
 220:	40 40       	sbci	r20, 0x00	; 0
 222:	e1 f7       	brne	.-8      	; 0x21c <main+0x162>
 224:	00 c0       	rjmp	.+0      	; 0x226 <main+0x16c>
 226:	00 00       	nop
 228:	18 b8       	out	0x08, r1	; 8
 22a:	5f ef       	ldi	r21, 0xFF	; 255
 22c:	83 ec       	ldi	r24, 0xC3	; 195
 22e:	99 e0       	ldi	r25, 0x09	; 9
 230:	51 50       	subi	r21, 0x01	; 1
 232:	80 40       	sbci	r24, 0x00	; 0
 234:	90 40       	sbci	r25, 0x00	; 0
 236:	e1 f7       	brne	.-8      	; 0x230 <main+0x176>
 238:	00 c0       	rjmp	.+0      	; 0x23a <main+0x180>
 23a:	00 00       	nop
 23c:	c8 b9       	out	0x08, r28	; 8
 23e:	ef ef       	ldi	r30, 0xFF	; 255
 240:	f3 ec       	ldi	r31, 0xC3	; 195
 242:	29 e0       	ldi	r18, 0x09	; 9
 244:	e1 50       	subi	r30, 0x01	; 1
 246:	f0 40       	sbci	r31, 0x00	; 0
 248:	20 40       	sbci	r18, 0x00	; 0
 24a:	e1 f7       	brne	.-8      	; 0x244 <main+0x18a>
 24c:	00 c0       	rjmp	.+0      	; 0x24e <main+0x194>
 24e:	00 00       	nop
 250:	08 b9       	out	0x08, r16	; 8
 252:	3f ef       	ldi	r19, 0xFF	; 255
 254:	43 ec       	ldi	r20, 0xC3	; 195
 256:	59 e0       	ldi	r21, 0x09	; 9
 258:	31 50       	subi	r19, 0x01	; 1
 25a:	40 40       	sbci	r20, 0x00	; 0
 25c:	50 40       	sbci	r21, 0x00	; 0
 25e:	e1 f7       	brne	.-8      	; 0x258 <main+0x19e>
 260:	00 c0       	rjmp	.+0      	; 0x262 <main+0x1a8>
 262:	00 00       	nop
 264:	d8 b9       	out	0x08, r29	; 8
 266:	8f ef       	ldi	r24, 0xFF	; 255
 268:	93 ec       	ldi	r25, 0xC3	; 195
 26a:	e9 e0       	ldi	r30, 0x09	; 9
 26c:	81 50       	subi	r24, 0x01	; 1
 26e:	90 40       	sbci	r25, 0x00	; 0
 270:	e0 40       	sbci	r30, 0x00	; 0
 272:	e1 f7       	brne	.-8      	; 0x26c <main+0x1b2>
 274:	00 c0       	rjmp	.+0      	; 0x276 <main+0x1bc>
 276:	00 00       	nop
 278:	18 b9       	out	0x08, r17	; 8
 27a:	ff ef       	ldi	r31, 0xFF	; 255
 27c:	23 ec       	ldi	r18, 0xC3	; 195
 27e:	39 e0       	ldi	r19, 0x09	; 9
 280:	f1 50       	subi	r31, 0x01	; 1
 282:	20 40       	sbci	r18, 0x00	; 0
 284:	30 40       	sbci	r19, 0x00	; 0
 286:	e1 f7       	brne	.-8      	; 0x280 <main+0x1c6>
 288:	00 c0       	rjmp	.+0      	; 0x28a <main+0x1d0>
 28a:	00 00       	nop
 28c:	41 e0       	ldi	r20, 0x01	; 1
 28e:	c4 1a       	sub	r12, r20
 290:	d1 08       	sbc	r13, r1
 292:	09 f0       	breq	.+2      	; 0x296 <main+0x1dc>
 294:	59 cf       	rjmp	.-334    	; 0x148 <main+0x8e>
 296:	18 b8       	out	0x08, r1	; 8
 298:	18 b8       	out	0x08, r1	; 8
 29a:	18 b8       	out	0x08, r1	; 8
 29c:	18 b8       	out	0x08, r1	; 8
 29e:	85 e0       	ldi	r24, 0x05	; 5
 2a0:	90 e0       	ldi	r25, 0x00	; 0
 2a2:	18 b9       	out	0x08, r17	; 8
 2a4:	5f ef       	ldi	r21, 0xFF	; 255
 2a6:	e3 ec       	ldi	r30, 0xC3	; 195
 2a8:	f9 e0       	ldi	r31, 0x09	; 9
 2aa:	51 50       	subi	r21, 0x01	; 1
 2ac:	e0 40       	sbci	r30, 0x00	; 0
 2ae:	f0 40       	sbci	r31, 0x00	; 0
 2b0:	e1 f7       	brne	.-8      	; 0x2aa <main+0x1f0>
 2b2:	00 c0       	rjmp	.+0      	; 0x2b4 <main+0x1fa>
 2b4:	00 00       	nop
 2b6:	18 b8       	out	0x08, r1	; 8
 2b8:	d8 b9       	out	0x08, r29	; 8
 2ba:	2f ef       	ldi	r18, 0xFF	; 255
 2bc:	33 ec       	ldi	r19, 0xC3	; 195
 2be:	49 e0       	ldi	r20, 0x09	; 9
 2c0:	21 50       	subi	r18, 0x01	; 1
 2c2:	30 40       	sbci	r19, 0x00	; 0
 2c4:	40 40       	sbci	r20, 0x00	; 0
 2c6:	e1 f7       	brne	.-8      	; 0x2c0 <main+0x206>
 2c8:	00 c0       	rjmp	.+0      	; 0x2ca <main+0x210>
 2ca:	00 00       	nop
 2cc:	18 b8       	out	0x08, r1	; 8
 2ce:	08 b9       	out	0x08, r16	; 8
 2d0:	5f ef       	ldi	r21, 0xFF	; 255
 2d2:	e3 ec       	ldi	r30, 0xC3	; 195
 2d4:	f9 e0       	ldi	r31, 0x09	; 9
 2d6:	51 50       	subi	r21, 0x01	; 1
 2d8:	e0 40       	sbci	r30, 0x00	; 0
 2da:	f0 40       	sbci	r31, 0x00	; 0
 2dc:	e1 f7       	brne	.-8      	; 0x2d6 <main+0x21c>
 2de:	00 c0       	rjmp	.+0      	; 0x2e0 <main+0x226>
 2e0:	00 00       	nop
 2e2:	18 b8       	out	0x08, r1	; 8
 2e4:	c8 b9       	out	0x08, r28	; 8
 2e6:	2f ef       	ldi	r18, 0xFF	; 255
 2e8:	33 ec       	ldi	r19, 0xC3	; 195
 2ea:	49 e0       	ldi	r20, 0x09	; 9
 2ec:	21 50       	subi	r18, 0x01	; 1
 2ee:	30 40       	sbci	r19, 0x00	; 0
 2f0:	40 40       	sbci	r20, 0x00	; 0
 2f2:	e1 f7       	brne	.-8      	; 0x2ec <main+0x232>
 2f4:	00 c0       	rjmp	.+0      	; 0x2f6 <main+0x23c>
 2f6:	00 00       	nop
 2f8:	18 b8       	out	0x08, r1	; 8
 2fa:	c8 b9       	out	0x08, r28	; 8
 2fc:	5f ef       	ldi	r21, 0xFF	; 255
 2fe:	e3 ec       	ldi	r30, 0xC3	; 195
 300:	f9 e0       	ldi	r31, 0x09	; 9
 302:	51 50       	subi	r21, 0x01	; 1
 304:	e0 40       	sbci	r30, 0x00	; 0
 306:	f0 40       	sbci	r31, 0x00	; 0
 308:	e1 f7       	brne	.-8      	; 0x302 <main+0x248>
 30a:	00 c0       	rjmp	.+0      	; 0x30c <main+0x252>
 30c:	00 00       	nop
 30e:	18 b8       	out	0x08, r1	; 8
 310:	08 b9       	out	0x08, r16	; 8
 312:	2f ef       	ldi	r18, 0xFF	; 255
 314:	33 ec       	ldi	r19, 0xC3	; 195
 316:	49 e0       	ldi	r20, 0x09	; 9
 318:	21 50       	subi	r18, 0x01	; 1
 31a:	30 40       	sbci	r19, 0x00	; 0
 31c:	40 40       	sbci	r20, 0x00	; 0
 31e:	e1 f7       	brne	.-8      	; 0x318 <main+0x25e>
 320:	00 c0       	rjmp	.+0      	; 0x322 <main+0x268>
 322:	00 00       	nop
 324:	18 b8       	out	0x08, r1	; 8
 326:	d8 b9       	out	0x08, r29	; 8
 328:	5f ef       	ldi	r21, 0xFF	; 255
 32a:	e3 ec       	ldi	r30, 0xC3	; 195
 32c:	f9 e0       	ldi	r31, 0x09	; 9
 32e:	51 50       	subi	r21, 0x01	; 1
 330:	e0 40       	sbci	r30, 0x00	; 0
 332:	f0 40       	sbci	r31, 0x00	; 0
 334:	e1 f7       	brne	.-8      	; 0x32e <main+0x274>
 336:	00 c0       	rjmp	.+0      	; 0x338 <main+0x27e>
 338:	00 00       	nop
 33a:	18 b8       	out	0x08, r1	; 8
 33c:	18 b9       	out	0x08, r17	; 8
 33e:	2f ef       	ldi	r18, 0xFF	; 255
 340:	33 ec       	ldi	r19, 0xC3	; 195
 342:	49 e0       	ldi	r20, 0x09	; 9
 344:	21 50       	subi	r18, 0x01	; 1
 346:	30 40       	sbci	r19, 0x00	; 0
 348:	40 40       	sbci	r20, 0x00	; 0
 34a:	e1 f7       	brne	.-8      	; 0x344 <main+0x28a>
 34c:	00 c0       	rjmp	.+0      	; 0x34e <main+0x294>
 34e:	00 00       	nop
 350:	18 b8       	out	0x08, r1	; 8
 352:	18 b9       	out	0x08, r17	; 8
 354:	5f ef       	ldi	r21, 0xFF	; 255
 356:	e3 ec       	ldi	r30, 0xC3	; 195
 358:	f9 e0       	ldi	r31, 0x09	; 9
 35a:	51 50       	subi	r21, 0x01	; 1
 35c:	e0 40       	sbci	r30, 0x00	; 0
 35e:	f0 40       	sbci	r31, 0x00	; 0
 360:	e1 f7       	brne	.-8      	; 0x35a <main+0x2a0>
 362:	00 c0       	rjmp	.+0      	; 0x364 <main+0x2aa>
 364:	00 00       	nop
 366:	d8 b9       	out	0x08, r29	; 8
 368:	2f ef       	ldi	r18, 0xFF	; 255
 36a:	33 ec       	ldi	r19, 0xC3	; 195
 36c:	49 e0       	ldi	r20, 0x09	; 9
 36e:	21 50       	subi	r18, 0x01	; 1
 370:	30 40       	sbci	r19, 0x00	; 0
 372:	40 40       	sbci	r20, 0x00	; 0
 374:	e1 f7       	brne	.-8      	; 0x36e <main+0x2b4>
 376:	00 c0       	rjmp	.+0      	; 0x378 <main+0x2be>
 378:	00 00       	nop
 37a:	08 b9       	out	0x08, r16	; 8
 37c:	5f ef       	ldi	r21, 0xFF	; 255
 37e:	e3 ec       	ldi	r30, 0xC3	; 195
 380:	f9 e0       	ldi	r31, 0x09	; 9
 382:	51 50       	subi	r21, 0x01	; 1
 384:	e0 40       	sbci	r30, 0x00	; 0
 386:	f0 40       	sbci	r31, 0x00	; 0
 388:	e1 f7       	brne	.-8      	; 0x382 <main+0x2c8>
 38a:	00 c0       	rjmp	.+0      	; 0x38c <main+0x2d2>
 38c:	00 00       	nop
 38e:	c8 b9       	out	0x08, r28	; 8
 390:	2f ef       	ldi	r18, 0xFF	; 255
 392:	33 ec       	ldi	r19, 0xC3	; 195
 394:	49 e0       	ldi	r20, 0x09	; 9
 396:	21 50       	subi	r18, 0x01	; 1
 398:	30 40       	sbci	r19, 0x00	; 0
 39a:	40 40       	sbci	r20, 0x00	; 0
 39c:	e1 f7       	brne	.-8      	; 0x396 <main+0x2dc>
 39e:	00 c0       	rjmp	.+0      	; 0x3a0 <main+0x2e6>
 3a0:	00 00       	nop
 3a2:	18 b8       	out	0x08, r1	; 8
 3a4:	5f ef       	ldi	r21, 0xFF	; 255
 3a6:	e3 ec       	ldi	r30, 0xC3	; 195
 3a8:	f9 e0       	ldi	r31, 0x09	; 9
 3aa:	51 50       	subi	r21, 0x01	; 1
 3ac:	e0 40       	sbci	r30, 0x00	; 0
 3ae:	f0 40       	sbci	r31, 0x00	; 0
 3b0:	e1 f7       	brne	.-8      	; 0x3aa <main+0x2f0>
 3b2:	00 c0       	rjmp	.+0      	; 0x3b4 <main+0x2fa>
 3b4:	00 00       	nop
 3b6:	18 b8       	out	0x08, r1	; 8
 3b8:	2f ef       	ldi	r18, 0xFF	; 255
 3ba:	33 ec       	ldi	r19, 0xC3	; 195
 3bc:	49 e0       	ldi	r20, 0x09	; 9
 3be:	21 50       	subi	r18, 0x01	; 1
 3c0:	30 40       	sbci	r19, 0x00	; 0
 3c2:	40 40       	sbci	r20, 0x00	; 0
 3c4:	e1 f7       	brne	.-8      	; 0x3be <main+0x304>
 3c6:	00 c0       	rjmp	.+0      	; 0x3c8 <main+0x30e>
 3c8:	00 00       	nop
 3ca:	18 b8       	out	0x08, r1	; 8
 3cc:	5f ef       	ldi	r21, 0xFF	; 255
 3ce:	e3 ec       	ldi	r30, 0xC3	; 195
 3d0:	f9 e0       	ldi	r31, 0x09	; 9
 3d2:	51 50       	subi	r21, 0x01	; 1
 3d4:	e0 40       	sbci	r30, 0x00	; 0
 3d6:	f0 40       	sbci	r31, 0x00	; 0
 3d8:	e1 f7       	brne	.-8      	; 0x3d2 <main+0x318>
 3da:	00 c0       	rjmp	.+0      	; 0x3dc <main+0x322>
 3dc:	00 00       	nop
 3de:	18 b8       	out	0x08, r1	; 8
 3e0:	2f ef       	ldi	r18, 0xFF	; 255
 3e2:	33 ec       	ldi	r19, 0xC3	; 195
 3e4:	49 e0       	ldi	r20, 0x09	; 9
 3e6:	21 50       	subi	r18, 0x01	; 1
 3e8:	30 40       	sbci	r19, 0x00	; 0
 3ea:	40 40       	sbci	r20, 0x00	; 0
 3ec:	e1 f7       	brne	.-8      	; 0x3e6 <main+0x32c>
 3ee:	00 c0       	rjmp	.+0      	; 0x3f0 <main+0x336>
 3f0:	00 00       	nop
 3f2:	01 97       	sbiw	r24, 0x01	; 1
 3f4:	09 f0       	breq	.+2      	; 0x3f8 <main+0x33e>
 3f6:	55 cf       	rjmp	.-342    	; 0x2a2 <main+0x1e8>
 3f8:	0e 94 4b 00 	call	0x96	; 0x96 <turnEverythingOff.1735>
 3fc:	58 b8       	out	0x08, r5	; 8
 3fe:	68 b8       	out	0x08, r6	; 8
 400:	78 b8       	out	0x08, r7	; 8
 402:	88 b8       	out	0x08, r8	; 8
 404:	83 e0       	ldi	r24, 0x03	; 3
 406:	90 e0       	ldi	r25, 0x00	; 0
 408:	20 e4       	ldi	r18, 0x40	; 64
 40a:	1b b8       	out	0x0b, r1	; 11
 40c:	5f ef       	ldi	r21, 0xFF	; 255
 40e:	e3 ec       	ldi	r30, 0xC3	; 195
 410:	f9 e0       	ldi	r31, 0x09	; 9
 412:	51 50       	subi	r21, 0x01	; 1
 414:	e0 40       	sbci	r30, 0x00	; 0
 416:	f0 40       	sbci	r31, 0x00	; 0
 418:	e1 f7       	brne	.-8      	; 0x412 <__LOCK_REGION_LENGTH__+0x12>
 41a:	00 c0       	rjmp	.+0      	; 0x41c <__LOCK_REGION_LENGTH__+0x1c>
 41c:	00 00       	nop
 41e:	1b b8       	out	0x0b, r1	; 11
 420:	3f ef       	ldi	r19, 0xFF	; 255
 422:	43 ec       	ldi	r20, 0xC3	; 195
 424:	59 e0       	ldi	r21, 0x09	; 9
 426:	31 50       	subi	r19, 0x01	; 1
 428:	40 40       	sbci	r20, 0x00	; 0
 42a:	50 40       	sbci	r21, 0x00	; 0
 42c:	e1 f7       	brne	.-8      	; 0x426 <__LOCK_REGION_LENGTH__+0x26>
 42e:	00 c0       	rjmp	.+0      	; 0x430 <__LOCK_REGION_LENGTH__+0x30>
 430:	00 00       	nop
 432:	1b b8       	out	0x0b, r1	; 11
 434:	ef ef       	ldi	r30, 0xFF	; 255
 436:	f3 ec       	ldi	r31, 0xC3	; 195
 438:	39 e0       	ldi	r19, 0x09	; 9
 43a:	e1 50       	subi	r30, 0x01	; 1
 43c:	f0 40       	sbci	r31, 0x00	; 0
 43e:	30 40       	sbci	r19, 0x00	; 0
 440:	e1 f7       	brne	.-8      	; 0x43a <__LOCK_REGION_LENGTH__+0x3a>
 442:	00 c0       	rjmp	.+0      	; 0x444 <__LOCK_REGION_LENGTH__+0x44>
 444:	00 00       	nop
 446:	1b b8       	out	0x0b, r1	; 11
 448:	4f ef       	ldi	r20, 0xFF	; 255
 44a:	53 ec       	ldi	r21, 0xC3	; 195
 44c:	e9 e0       	ldi	r30, 0x09	; 9
 44e:	41 50       	subi	r20, 0x01	; 1
 450:	50 40       	sbci	r21, 0x00	; 0
 452:	e0 40       	sbci	r30, 0x00	; 0
 454:	e1 f7       	brne	.-8      	; 0x44e <__LOCK_REGION_LENGTH__+0x4e>
 456:	00 c0       	rjmp	.+0      	; 0x458 <__LOCK_REGION_LENGTH__+0x58>
 458:	00 00       	nop
 45a:	1b b8       	out	0x0b, r1	; 11
 45c:	ff ef       	ldi	r31, 0xFF	; 255
 45e:	33 ec       	ldi	r19, 0xC3	; 195
 460:	49 e0       	ldi	r20, 0x09	; 9
 462:	f1 50       	subi	r31, 0x01	; 1
 464:	30 40       	sbci	r19, 0x00	; 0
 466:	40 40       	sbci	r20, 0x00	; 0
 468:	e1 f7       	brne	.-8      	; 0x462 <__LOCK_REGION_LENGTH__+0x62>
 46a:	00 c0       	rjmp	.+0      	; 0x46c <__LOCK_REGION_LENGTH__+0x6c>
 46c:	00 00       	nop
 46e:	1b b8       	out	0x0b, r1	; 11
 470:	5f ef       	ldi	r21, 0xFF	; 255
 472:	e3 ec       	ldi	r30, 0xC3	; 195
 474:	f9 e0       	ldi	r31, 0x09	; 9
 476:	51 50       	subi	r21, 0x01	; 1
 478:	e0 40       	sbci	r30, 0x00	; 0
 47a:	f0 40       	sbci	r31, 0x00	; 0
 47c:	e1 f7       	brne	.-8      	; 0x476 <__LOCK_REGION_LENGTH__+0x76>
 47e:	00 c0       	rjmp	.+0      	; 0x480 <__LOCK_REGION_LENGTH__+0x80>
 480:	00 00       	nop
 482:	1b b8       	out	0x0b, r1	; 11
 484:	3f ef       	ldi	r19, 0xFF	; 255
 486:	43 ec       	ldi	r20, 0xC3	; 195
 488:	59 e0       	ldi	r21, 0x09	; 9
 48a:	31 50       	subi	r19, 0x01	; 1
 48c:	40 40       	sbci	r20, 0x00	; 0
 48e:	50 40       	sbci	r21, 0x00	; 0
 490:	e1 f7       	brne	.-8      	; 0x48a <__LOCK_REGION_LENGTH__+0x8a>
 492:	00 c0       	rjmp	.+0      	; 0x494 <__LOCK_REGION_LENGTH__+0x94>
 494:	00 00       	nop
 496:	1b b8       	out	0x0b, r1	; 11
 498:	ef ef       	ldi	r30, 0xFF	; 255
 49a:	f3 ec       	ldi	r31, 0xC3	; 195
 49c:	39 e0       	ldi	r19, 0x09	; 9
 49e:	e1 50       	subi	r30, 0x01	; 1
 4a0:	f0 40       	sbci	r31, 0x00	; 0
 4a2:	30 40       	sbci	r19, 0x00	; 0
 4a4:	e1 f7       	brne	.-8      	; 0x49e <__LOCK_REGION_LENGTH__+0x9e>
 4a6:	00 c0       	rjmp	.+0      	; 0x4a8 <__LOCK_REGION_LENGTH__+0xa8>
 4a8:	00 00       	nop
 4aa:	15 b8       	out	0x05, r1	; 5
 4ac:	4f ef       	ldi	r20, 0xFF	; 255
 4ae:	53 ec       	ldi	r21, 0xC3	; 195
 4b0:	e9 e0       	ldi	r30, 0x09	; 9
 4b2:	41 50       	subi	r20, 0x01	; 1
 4b4:	50 40       	sbci	r21, 0x00	; 0
 4b6:	e0 40       	sbci	r30, 0x00	; 0
 4b8:	e1 f7       	brne	.-8      	; 0x4b2 <__LOCK_REGION_LENGTH__+0xb2>
 4ba:	00 c0       	rjmp	.+0      	; 0x4bc <__LOCK_REGION_LENGTH__+0xbc>
 4bc:	00 00       	nop
 4be:	15 b8       	out	0x05, r1	; 5
 4c0:	ff ef       	ldi	r31, 0xFF	; 255
 4c2:	33 ec       	ldi	r19, 0xC3	; 195
 4c4:	49 e0       	ldi	r20, 0x09	; 9
 4c6:	f1 50       	subi	r31, 0x01	; 1
 4c8:	30 40       	sbci	r19, 0x00	; 0
 4ca:	40 40       	sbci	r20, 0x00	; 0
 4cc:	e1 f7       	brne	.-8      	; 0x4c6 <__LOCK_REGION_LENGTH__+0xc6>
 4ce:	00 c0       	rjmp	.+0      	; 0x4d0 <__LOCK_REGION_LENGTH__+0xd0>
 4d0:	00 00       	nop
 4d2:	15 b8       	out	0x05, r1	; 5
 4d4:	5f ef       	ldi	r21, 0xFF	; 255
 4d6:	e3 ec       	ldi	r30, 0xC3	; 195
 4d8:	f9 e0       	ldi	r31, 0x09	; 9
 4da:	51 50       	subi	r21, 0x01	; 1
 4dc:	e0 40       	sbci	r30, 0x00	; 0
 4de:	f0 40       	sbci	r31, 0x00	; 0
 4e0:	e1 f7       	brne	.-8      	; 0x4da <__LOCK_REGION_LENGTH__+0xda>
 4e2:	00 c0       	rjmp	.+0      	; 0x4e4 <__LOCK_REGION_LENGTH__+0xe4>
 4e4:	00 00       	nop
 4e6:	15 b8       	out	0x05, r1	; 5
 4e8:	3f ef       	ldi	r19, 0xFF	; 255
 4ea:	43 ec       	ldi	r20, 0xC3	; 195
 4ec:	59 e0       	ldi	r21, 0x09	; 9
 4ee:	31 50       	subi	r19, 0x01	; 1
 4f0:	40 40       	sbci	r20, 0x00	; 0
 4f2:	50 40       	sbci	r21, 0x00	; 0
 4f4:	e1 f7       	brne	.-8      	; 0x4ee <__LOCK_REGION_LENGTH__+0xee>
 4f6:	00 c0       	rjmp	.+0      	; 0x4f8 <__LOCK_REGION_LENGTH__+0xf8>
 4f8:	00 00       	nop
 4fa:	15 b8       	out	0x05, r1	; 5
 4fc:	18 b8       	out	0x08, r1	; 8
 4fe:	18 b8       	out	0x08, r1	; 8
 500:	ef ef       	ldi	r30, 0xFF	; 255
 502:	f3 ec       	ldi	r31, 0xC3	; 195
 504:	39 e0       	ldi	r19, 0x09	; 9
 506:	e1 50       	subi	r30, 0x01	; 1
 508:	f0 40       	sbci	r31, 0x00	; 0
 50a:	30 40       	sbci	r19, 0x00	; 0
 50c:	e1 f7       	brne	.-8      	; 0x506 <__LOCK_REGION_LENGTH__+0x106>
 50e:	00 c0       	rjmp	.+0      	; 0x510 <__LOCK_REGION_LENGTH__+0x110>
 510:	00 00       	nop
 512:	15 b8       	out	0x05, r1	; 5
 514:	18 b8       	out	0x08, r1	; 8
 516:	18 b8       	out	0x08, r1	; 8
 518:	4f ef       	ldi	r20, 0xFF	; 255
 51a:	53 ec       	ldi	r21, 0xC3	; 195
 51c:	e9 e0       	ldi	r30, 0x09	; 9
 51e:	41 50       	subi	r20, 0x01	; 1
 520:	50 40       	sbci	r21, 0x00	; 0
 522:	e0 40       	sbci	r30, 0x00	; 0
 524:	e1 f7       	brne	.-8      	; 0x51e <__LOCK_REGION_LENGTH__+0x11e>
 526:	00 c0       	rjmp	.+0      	; 0x528 <__LOCK_REGION_LENGTH__+0x128>
 528:	00 00       	nop
 52a:	1b b9       	out	0x0b, r17	; 11
 52c:	ff ef       	ldi	r31, 0xFF	; 255
 52e:	33 ec       	ldi	r19, 0xC3	; 195
 530:	49 e0       	ldi	r20, 0x09	; 9
 532:	f1 50       	subi	r31, 0x01	; 1
 534:	30 40       	sbci	r19, 0x00	; 0
 536:	40 40       	sbci	r20, 0x00	; 0
 538:	e1 f7       	brne	.-8      	; 0x532 <__LOCK_REGION_LENGTH__+0x132>
 53a:	00 c0       	rjmp	.+0      	; 0x53c <__LOCK_REGION_LENGTH__+0x13c>
 53c:	00 00       	nop
 53e:	db b9       	out	0x0b, r29	; 11
 540:	5f ef       	ldi	r21, 0xFF	; 255
 542:	e3 ec       	ldi	r30, 0xC3	; 195
 544:	f9 e0       	ldi	r31, 0x09	; 9
 546:	51 50       	subi	r21, 0x01	; 1
 548:	e0 40       	sbci	r30, 0x00	; 0
 54a:	f0 40       	sbci	r31, 0x00	; 0
 54c:	e1 f7       	brne	.-8      	; 0x546 <__LOCK_REGION_LENGTH__+0x146>
 54e:	00 c0       	rjmp	.+0      	; 0x550 <__LOCK_REGION_LENGTH__+0x150>
 550:	00 00       	nop
 552:	0b b9       	out	0x0b, r16	; 11
 554:	3f ef       	ldi	r19, 0xFF	; 255
 556:	43 ec       	ldi	r20, 0xC3	; 195
 558:	59 e0       	ldi	r21, 0x09	; 9
 55a:	31 50       	subi	r19, 0x01	; 1
 55c:	40 40       	sbci	r20, 0x00	; 0
 55e:	50 40       	sbci	r21, 0x00	; 0
 560:	e1 f7       	brne	.-8      	; 0x55a <__LOCK_REGION_LENGTH__+0x15a>
 562:	00 c0       	rjmp	.+0      	; 0x564 <__LOCK_REGION_LENGTH__+0x164>
 564:	00 00       	nop
 566:	cb b9       	out	0x0b, r28	; 11
 568:	ef ef       	ldi	r30, 0xFF	; 255
 56a:	f3 ec       	ldi	r31, 0xC3	; 195
 56c:	39 e0       	ldi	r19, 0x09	; 9
 56e:	e1 50       	subi	r30, 0x01	; 1
 570:	f0 40       	sbci	r31, 0x00	; 0
 572:	30 40       	sbci	r19, 0x00	; 0
 574:	e1 f7       	brne	.-8      	; 0x56e <__LOCK_REGION_LENGTH__+0x16e>
 576:	00 c0       	rjmp	.+0      	; 0x578 <__LOCK_REGION_LENGTH__+0x178>
 578:	00 00       	nop
 57a:	fb b8       	out	0x0b, r15	; 11
 57c:	4f ef       	ldi	r20, 0xFF	; 255
 57e:	53 ec       	ldi	r21, 0xC3	; 195
 580:	e9 e0       	ldi	r30, 0x09	; 9
 582:	41 50       	subi	r20, 0x01	; 1
 584:	50 40       	sbci	r21, 0x00	; 0
 586:	e0 40       	sbci	r30, 0x00	; 0
 588:	e1 f7       	brne	.-8      	; 0x582 <__LOCK_REGION_LENGTH__+0x182>
 58a:	00 c0       	rjmp	.+0      	; 0x58c <__LOCK_REGION_LENGTH__+0x18c>
 58c:	00 00       	nop
 58e:	eb b8       	out	0x0b, r14	; 11
 590:	ff ef       	ldi	r31, 0xFF	; 255
 592:	33 ec       	ldi	r19, 0xC3	; 195
 594:	49 e0       	ldi	r20, 0x09	; 9
 596:	f1 50       	subi	r31, 0x01	; 1
 598:	30 40       	sbci	r19, 0x00	; 0
 59a:	40 40       	sbci	r20, 0x00	; 0
 59c:	e1 f7       	brne	.-8      	; 0x596 <__LOCK_REGION_LENGTH__+0x196>
 59e:	00 c0       	rjmp	.+0      	; 0x5a0 <__LOCK_REGION_LENGTH__+0x1a0>
 5a0:	00 00       	nop
 5a2:	2b b9       	out	0x0b, r18	; 11
 5a4:	5f ef       	ldi	r21, 0xFF	; 255
 5a6:	e3 ec       	ldi	r30, 0xC3	; 195
 5a8:	f9 e0       	ldi	r31, 0x09	; 9
 5aa:	51 50       	subi	r21, 0x01	; 1
 5ac:	e0 40       	sbci	r30, 0x00	; 0
 5ae:	f0 40       	sbci	r31, 0x00	; 0
 5b0:	e1 f7       	brne	.-8      	; 0x5aa <__LOCK_REGION_LENGTH__+0x1aa>
 5b2:	00 c0       	rjmp	.+0      	; 0x5b4 <__LOCK_REGION_LENGTH__+0x1b4>
 5b4:	00 00       	nop
 5b6:	9b b8       	out	0x0b, r9	; 11
 5b8:	3f ef       	ldi	r19, 0xFF	; 255
 5ba:	43 ec       	ldi	r20, 0xC3	; 195
 5bc:	59 e0       	ldi	r21, 0x09	; 9
 5be:	31 50       	subi	r19, 0x01	; 1
 5c0:	40 40       	sbci	r20, 0x00	; 0
 5c2:	50 40       	sbci	r21, 0x00	; 0
 5c4:	e1 f7       	brne	.-8      	; 0x5be <__LOCK_REGION_LENGTH__+0x1be>
 5c6:	00 c0       	rjmp	.+0      	; 0x5c8 <__LOCK_REGION_LENGTH__+0x1c8>
 5c8:	00 00       	nop
 5ca:	15 b9       	out	0x05, r17	; 5
 5cc:	ef ef       	ldi	r30, 0xFF	; 255
 5ce:	f3 ec       	ldi	r31, 0xC3	; 195
 5d0:	39 e0       	ldi	r19, 0x09	; 9
 5d2:	e1 50       	subi	r30, 0x01	; 1
 5d4:	f0 40       	sbci	r31, 0x00	; 0
 5d6:	30 40       	sbci	r19, 0x00	; 0
 5d8:	e1 f7       	brne	.-8      	; 0x5d2 <__LOCK_REGION_LENGTH__+0x1d2>
 5da:	00 c0       	rjmp	.+0      	; 0x5dc <__LOCK_REGION_LENGTH__+0x1dc>
 5dc:	00 00       	nop
 5de:	d5 b9       	out	0x05, r29	; 5
 5e0:	4f ef       	ldi	r20, 0xFF	; 255
 5e2:	53 ec       	ldi	r21, 0xC3	; 195
 5e4:	e9 e0       	ldi	r30, 0x09	; 9
 5e6:	41 50       	subi	r20, 0x01	; 1
 5e8:	50 40       	sbci	r21, 0x00	; 0
 5ea:	e0 40       	sbci	r30, 0x00	; 0
 5ec:	e1 f7       	brne	.-8      	; 0x5e6 <__LOCK_REGION_LENGTH__+0x1e6>
 5ee:	00 c0       	rjmp	.+0      	; 0x5f0 <__LOCK_REGION_LENGTH__+0x1f0>
 5f0:	00 00       	nop
 5f2:	05 b9       	out	0x05, r16	; 5
 5f4:	ff ef       	ldi	r31, 0xFF	; 255
 5f6:	33 ec       	ldi	r19, 0xC3	; 195
 5f8:	49 e0       	ldi	r20, 0x09	; 9
 5fa:	f1 50       	subi	r31, 0x01	; 1
 5fc:	30 40       	sbci	r19, 0x00	; 0
 5fe:	40 40       	sbci	r20, 0x00	; 0
 600:	e1 f7       	brne	.-8      	; 0x5fa <__LOCK_REGION_LENGTH__+0x1fa>
 602:	00 c0       	rjmp	.+0      	; 0x604 <__LOCK_REGION_LENGTH__+0x204>
 604:	00 00       	nop
 606:	c5 b9       	out	0x05, r28	; 5
 608:	5f ef       	ldi	r21, 0xFF	; 255
 60a:	e3 ec       	ldi	r30, 0xC3	; 195
 60c:	f9 e0       	ldi	r31, 0x09	; 9
 60e:	51 50       	subi	r21, 0x01	; 1
 610:	e0 40       	sbci	r30, 0x00	; 0
 612:	f0 40       	sbci	r31, 0x00	; 0
 614:	e1 f7       	brne	.-8      	; 0x60e <__LOCK_REGION_LENGTH__+0x20e>
 616:	00 c0       	rjmp	.+0      	; 0x618 <__LOCK_REGION_LENGTH__+0x218>
 618:	00 00       	nop
 61a:	f5 b8       	out	0x05, r15	; 5
 61c:	c8 b9       	out	0x08, r28	; 8
 61e:	f8 b8       	out	0x08, r15	; 8
 620:	3f ef       	ldi	r19, 0xFF	; 255
 622:	41 ee       	ldi	r20, 0xE1	; 225
 624:	54 e0       	ldi	r21, 0x04	; 4
 626:	31 50       	subi	r19, 0x01	; 1
 628:	40 40       	sbci	r20, 0x00	; 0
 62a:	50 40       	sbci	r21, 0x00	; 0
 62c:	e1 f7       	brne	.-8      	; 0x626 <__LOCK_REGION_LENGTH__+0x226>
 62e:	00 c0       	rjmp	.+0      	; 0x630 <__LOCK_REGION_LENGTH__+0x230>
 630:	00 00       	nop
 632:	e5 b8       	out	0x05, r14	; 5
 634:	c8 b9       	out	0x08, r28	; 8
 636:	f8 b8       	out	0x08, r15	; 8
 638:	ef ef       	ldi	r30, 0xFF	; 255
 63a:	f1 ee       	ldi	r31, 0xE1	; 225
 63c:	34 e0       	ldi	r19, 0x04	; 4
 63e:	e1 50       	subi	r30, 0x01	; 1
 640:	f0 40       	sbci	r31, 0x00	; 0
 642:	30 40       	sbci	r19, 0x00	; 0
 644:	e1 f7       	brne	.-8      	; 0x63e <__LOCK_REGION_LENGTH__+0x23e>
 646:	00 c0       	rjmp	.+0      	; 0x648 <__LOCK_REGION_LENGTH__+0x248>
 648:	00 00       	nop
 64a:	15 b8       	out	0x05, r1	; 5
 64c:	18 b8       	out	0x08, r1	; 8
 64e:	18 b8       	out	0x08, r1	; 8
 650:	4f ef       	ldi	r20, 0xFF	; 255
 652:	53 ec       	ldi	r21, 0xC3	; 195
 654:	e9 e0       	ldi	r30, 0x09	; 9
 656:	41 50       	subi	r20, 0x01	; 1
 658:	50 40       	sbci	r21, 0x00	; 0
 65a:	e0 40       	sbci	r30, 0x00	; 0
 65c:	e1 f7       	brne	.-8      	; 0x656 <__LOCK_REGION_LENGTH__+0x256>
 65e:	00 c0       	rjmp	.+0      	; 0x660 <__LOCK_REGION_LENGTH__+0x260>
 660:	00 00       	nop
 662:	15 b8       	out	0x05, r1	; 5
 664:	18 b8       	out	0x08, r1	; 8
 666:	18 b8       	out	0x08, r1	; 8
 668:	ff ef       	ldi	r31, 0xFF	; 255
 66a:	33 ec       	ldi	r19, 0xC3	; 195
 66c:	49 e0       	ldi	r20, 0x09	; 9
 66e:	f1 50       	subi	r31, 0x01	; 1
 670:	30 40       	sbci	r19, 0x00	; 0
 672:	40 40       	sbci	r20, 0x00	; 0
 674:	e1 f7       	brne	.-8      	; 0x66e <__LOCK_REGION_LENGTH__+0x26e>
 676:	00 c0       	rjmp	.+0      	; 0x678 <__LOCK_REGION_LENGTH__+0x278>
 678:	00 00       	nop
 67a:	15 b8       	out	0x05, r1	; 5
 67c:	5f ef       	ldi	r21, 0xFF	; 255
 67e:	e3 ec       	ldi	r30, 0xC3	; 195
 680:	f9 e0       	ldi	r31, 0x09	; 9
 682:	51 50       	subi	r21, 0x01	; 1
 684:	e0 40       	sbci	r30, 0x00	; 0
 686:	f0 40       	sbci	r31, 0x00	; 0
 688:	e1 f7       	brne	.-8      	; 0x682 <__LOCK_REGION_LENGTH__+0x282>
 68a:	00 c0       	rjmp	.+0      	; 0x68c <__LOCK_REGION_LENGTH__+0x28c>
 68c:	00 00       	nop
 68e:	15 b8       	out	0x05, r1	; 5
 690:	3f ef       	ldi	r19, 0xFF	; 255
 692:	43 ec       	ldi	r20, 0xC3	; 195
 694:	59 e0       	ldi	r21, 0x09	; 9
 696:	31 50       	subi	r19, 0x01	; 1
 698:	40 40       	sbci	r20, 0x00	; 0
 69a:	50 40       	sbci	r21, 0x00	; 0
 69c:	e1 f7       	brne	.-8      	; 0x696 <__LOCK_REGION_LENGTH__+0x296>
 69e:	00 c0       	rjmp	.+0      	; 0x6a0 <__LOCK_REGION_LENGTH__+0x2a0>
 6a0:	00 00       	nop
 6a2:	15 b8       	out	0x05, r1	; 5
 6a4:	ef ef       	ldi	r30, 0xFF	; 255
 6a6:	f3 ec       	ldi	r31, 0xC3	; 195
 6a8:	39 e0       	ldi	r19, 0x09	; 9
 6aa:	e1 50       	subi	r30, 0x01	; 1
 6ac:	f0 40       	sbci	r31, 0x00	; 0
 6ae:	30 40       	sbci	r19, 0x00	; 0
 6b0:	e1 f7       	brne	.-8      	; 0x6aa <__LOCK_REGION_LENGTH__+0x2aa>
 6b2:	00 c0       	rjmp	.+0      	; 0x6b4 <__LOCK_REGION_LENGTH__+0x2b4>
 6b4:	00 00       	nop
 6b6:	15 b8       	out	0x05, r1	; 5
 6b8:	4f ef       	ldi	r20, 0xFF	; 255
 6ba:	53 ec       	ldi	r21, 0xC3	; 195
 6bc:	e9 e0       	ldi	r30, 0x09	; 9
 6be:	41 50       	subi	r20, 0x01	; 1
 6c0:	50 40       	sbci	r21, 0x00	; 0
 6c2:	e0 40       	sbci	r30, 0x00	; 0
 6c4:	e1 f7       	brne	.-8      	; 0x6be <__LOCK_REGION_LENGTH__+0x2be>
 6c6:	00 c0       	rjmp	.+0      	; 0x6c8 <__LOCK_REGION_LENGTH__+0x2c8>
 6c8:	00 00       	nop
 6ca:	1b b8       	out	0x0b, r1	; 11
 6cc:	ff ef       	ldi	r31, 0xFF	; 255
 6ce:	33 ec       	ldi	r19, 0xC3	; 195
 6d0:	49 e0       	ldi	r20, 0x09	; 9
 6d2:	f1 50       	subi	r31, 0x01	; 1
 6d4:	30 40       	sbci	r19, 0x00	; 0
 6d6:	40 40       	sbci	r20, 0x00	; 0
 6d8:	e1 f7       	brne	.-8      	; 0x6d2 <__LOCK_REGION_LENGTH__+0x2d2>
 6da:	00 c0       	rjmp	.+0      	; 0x6dc <__LOCK_REGION_LENGTH__+0x2dc>
 6dc:	00 00       	nop
 6de:	1b b8       	out	0x0b, r1	; 11
 6e0:	5f ef       	ldi	r21, 0xFF	; 255
 6e2:	e3 ec       	ldi	r30, 0xC3	; 195
 6e4:	f9 e0       	ldi	r31, 0x09	; 9
 6e6:	51 50       	subi	r21, 0x01	; 1
 6e8:	e0 40       	sbci	r30, 0x00	; 0
 6ea:	f0 40       	sbci	r31, 0x00	; 0
 6ec:	e1 f7       	brne	.-8      	; 0x6e6 <__LOCK_REGION_LENGTH__+0x2e6>
 6ee:	00 c0       	rjmp	.+0      	; 0x6f0 <__LOCK_REGION_LENGTH__+0x2f0>
 6f0:	00 00       	nop
 6f2:	1b b8       	out	0x0b, r1	; 11
 6f4:	3f ef       	ldi	r19, 0xFF	; 255
 6f6:	43 ec       	ldi	r20, 0xC3	; 195
 6f8:	59 e0       	ldi	r21, 0x09	; 9
 6fa:	31 50       	subi	r19, 0x01	; 1
 6fc:	40 40       	sbci	r20, 0x00	; 0
 6fe:	50 40       	sbci	r21, 0x00	; 0
 700:	e1 f7       	brne	.-8      	; 0x6fa <__LOCK_REGION_LENGTH__+0x2fa>
 702:	00 c0       	rjmp	.+0      	; 0x704 <__LOCK_REGION_LENGTH__+0x304>
 704:	00 00       	nop
 706:	1b b8       	out	0x0b, r1	; 11
 708:	ef ef       	ldi	r30, 0xFF	; 255
 70a:	f3 ec       	ldi	r31, 0xC3	; 195
 70c:	39 e0       	ldi	r19, 0x09	; 9
 70e:	e1 50       	subi	r30, 0x01	; 1
 710:	f0 40       	sbci	r31, 0x00	; 0
 712:	30 40       	sbci	r19, 0x00	; 0
 714:	e1 f7       	brne	.-8      	; 0x70e <__LOCK_REGION_LENGTH__+0x30e>
 716:	00 c0       	rjmp	.+0      	; 0x718 <__LOCK_REGION_LENGTH__+0x318>
 718:	00 00       	nop
 71a:	1b b8       	out	0x0b, r1	; 11
 71c:	4f ef       	ldi	r20, 0xFF	; 255
 71e:	53 ec       	ldi	r21, 0xC3	; 195
 720:	e9 e0       	ldi	r30, 0x09	; 9
 722:	41 50       	subi	r20, 0x01	; 1
 724:	50 40       	sbci	r21, 0x00	; 0
 726:	e0 40       	sbci	r30, 0x00	; 0
 728:	e1 f7       	brne	.-8      	; 0x722 <__LOCK_REGION_LENGTH__+0x322>
 72a:	00 c0       	rjmp	.+0      	; 0x72c <__LOCK_REGION_LENGTH__+0x32c>
 72c:	00 00       	nop
 72e:	1b b8       	out	0x0b, r1	; 11
 730:	ff ef       	ldi	r31, 0xFF	; 255
 732:	33 ec       	ldi	r19, 0xC3	; 195
 734:	49 e0       	ldi	r20, 0x09	; 9
 736:	f1 50       	subi	r31, 0x01	; 1
 738:	30 40       	sbci	r19, 0x00	; 0
 73a:	40 40       	sbci	r20, 0x00	; 0
 73c:	e1 f7       	brne	.-8      	; 0x736 <__LOCK_REGION_LENGTH__+0x336>
 73e:	00 c0       	rjmp	.+0      	; 0x740 <__LOCK_REGION_LENGTH__+0x340>
 740:	00 00       	nop
 742:	1b b8       	out	0x0b, r1	; 11
 744:	5f ef       	ldi	r21, 0xFF	; 255
 746:	e3 ec       	ldi	r30, 0xC3	; 195
 748:	f9 e0       	ldi	r31, 0x09	; 9
 74a:	51 50       	subi	r21, 0x01	; 1
 74c:	e0 40       	sbci	r30, 0x00	; 0
 74e:	f0 40       	sbci	r31, 0x00	; 0
 750:	e1 f7       	brne	.-8      	; 0x74a <__LOCK_REGION_LENGTH__+0x34a>
 752:	00 c0       	rjmp	.+0      	; 0x754 <__LOCK_REGION_LENGTH__+0x354>
 754:	00 00       	nop
 756:	1b b8       	out	0x0b, r1	; 11
 758:	3f ef       	ldi	r19, 0xFF	; 255
 75a:	43 ec       	ldi	r20, 0xC3	; 195
 75c:	59 e0       	ldi	r21, 0x09	; 9
 75e:	31 50       	subi	r19, 0x01	; 1
 760:	40 40       	sbci	r20, 0x00	; 0
 762:	50 40       	sbci	r21, 0x00	; 0
 764:	e1 f7       	brne	.-8      	; 0x75e <__LOCK_REGION_LENGTH__+0x35e>
 766:	00 c0       	rjmp	.+0      	; 0x768 <__LOCK_REGION_LENGTH__+0x368>
 768:	00 00       	nop
 76a:	f5 b8       	out	0x05, r15	; 5
 76c:	c8 b9       	out	0x08, r28	; 8
 76e:	f8 b8       	out	0x08, r15	; 8
 770:	ef ef       	ldi	r30, 0xFF	; 255
 772:	f3 ec       	ldi	r31, 0xC3	; 195
 774:	39 e0       	ldi	r19, 0x09	; 9
 776:	e1 50       	subi	r30, 0x01	; 1
 778:	f0 40       	sbci	r31, 0x00	; 0
 77a:	30 40       	sbci	r19, 0x00	; 0
 77c:	e1 f7       	brne	.-8      	; 0x776 <__LOCK_REGION_LENGTH__+0x376>
 77e:	00 c0       	rjmp	.+0      	; 0x780 <__LOCK_REGION_LENGTH__+0x380>
 780:	00 00       	nop
 782:	e5 b8       	out	0x05, r14	; 5
 784:	c8 b9       	out	0x08, r28	; 8
 786:	f8 b8       	out	0x08, r15	; 8
 788:	4f ef       	ldi	r20, 0xFF	; 255
 78a:	53 ec       	ldi	r21, 0xC3	; 195
 78c:	e9 e0       	ldi	r30, 0x09	; 9
 78e:	41 50       	subi	r20, 0x01	; 1
 790:	50 40       	sbci	r21, 0x00	; 0
 792:	e0 40       	sbci	r30, 0x00	; 0
 794:	e1 f7       	brne	.-8      	; 0x78e <__LOCK_REGION_LENGTH__+0x38e>
 796:	00 c0       	rjmp	.+0      	; 0x798 <__LOCK_REGION_LENGTH__+0x398>
 798:	00 00       	nop
 79a:	15 b9       	out	0x05, r17	; 5
 79c:	ff ef       	ldi	r31, 0xFF	; 255
 79e:	33 ec       	ldi	r19, 0xC3	; 195
 7a0:	49 e0       	ldi	r20, 0x09	; 9
 7a2:	f1 50       	subi	r31, 0x01	; 1
 7a4:	30 40       	sbci	r19, 0x00	; 0
 7a6:	40 40       	sbci	r20, 0x00	; 0
 7a8:	e1 f7       	brne	.-8      	; 0x7a2 <__LOCK_REGION_LENGTH__+0x3a2>
 7aa:	00 c0       	rjmp	.+0      	; 0x7ac <__LOCK_REGION_LENGTH__+0x3ac>
 7ac:	00 00       	nop
 7ae:	d5 b9       	out	0x05, r29	; 5
 7b0:	5f ef       	ldi	r21, 0xFF	; 255
 7b2:	e3 ec       	ldi	r30, 0xC3	; 195
 7b4:	f9 e0       	ldi	r31, 0x09	; 9
 7b6:	51 50       	subi	r21, 0x01	; 1
 7b8:	e0 40       	sbci	r30, 0x00	; 0
 7ba:	f0 40       	sbci	r31, 0x00	; 0
 7bc:	e1 f7       	brne	.-8      	; 0x7b6 <__LOCK_REGION_LENGTH__+0x3b6>
 7be:	00 c0       	rjmp	.+0      	; 0x7c0 <__LOCK_REGION_LENGTH__+0x3c0>
 7c0:	00 00       	nop
 7c2:	05 b9       	out	0x05, r16	; 5
 7c4:	3f ef       	ldi	r19, 0xFF	; 255
 7c6:	43 ec       	ldi	r20, 0xC3	; 195
 7c8:	59 e0       	ldi	r21, 0x09	; 9
 7ca:	31 50       	subi	r19, 0x01	; 1
 7cc:	40 40       	sbci	r20, 0x00	; 0
 7ce:	50 40       	sbci	r21, 0x00	; 0
 7d0:	e1 f7       	brne	.-8      	; 0x7ca <__LOCK_REGION_LENGTH__+0x3ca>
 7d2:	00 c0       	rjmp	.+0      	; 0x7d4 <__LOCK_REGION_LENGTH__+0x3d4>
 7d4:	00 00       	nop
 7d6:	c5 b9       	out	0x05, r28	; 5
 7d8:	ef ef       	ldi	r30, 0xFF	; 255
 7da:	f3 ec       	ldi	r31, 0xC3	; 195
 7dc:	39 e0       	ldi	r19, 0x09	; 9
 7de:	e1 50       	subi	r30, 0x01	; 1
 7e0:	f0 40       	sbci	r31, 0x00	; 0
 7e2:	30 40       	sbci	r19, 0x00	; 0
 7e4:	e1 f7       	brne	.-8      	; 0x7de <__LOCK_REGION_LENGTH__+0x3de>
 7e6:	00 c0       	rjmp	.+0      	; 0x7e8 <__LOCK_REGION_LENGTH__+0x3e8>
 7e8:	00 00       	nop
 7ea:	fb b8       	out	0x0b, r15	; 11
 7ec:	4f ef       	ldi	r20, 0xFF	; 255
 7ee:	53 ec       	ldi	r21, 0xC3	; 195
 7f0:	e9 e0       	ldi	r30, 0x09	; 9
 7f2:	41 50       	subi	r20, 0x01	; 1
 7f4:	50 40       	sbci	r21, 0x00	; 0
 7f6:	e0 40       	sbci	r30, 0x00	; 0
 7f8:	e1 f7       	brne	.-8      	; 0x7f2 <__LOCK_REGION_LENGTH__+0x3f2>
 7fa:	00 c0       	rjmp	.+0      	; 0x7fc <__LOCK_REGION_LENGTH__+0x3fc>
 7fc:	00 00       	nop
 7fe:	eb b8       	out	0x0b, r14	; 11
 800:	ff ef       	ldi	r31, 0xFF	; 255
 802:	33 ec       	ldi	r19, 0xC3	; 195
 804:	49 e0       	ldi	r20, 0x09	; 9
 806:	f1 50       	subi	r31, 0x01	; 1
 808:	30 40       	sbci	r19, 0x00	; 0
 80a:	40 40       	sbci	r20, 0x00	; 0
 80c:	e1 f7       	brne	.-8      	; 0x806 <__LOCK_REGION_LENGTH__+0x406>
 80e:	00 c0       	rjmp	.+0      	; 0x810 <__LOCK_REGION_LENGTH__+0x410>
 810:	00 00       	nop
 812:	2b b9       	out	0x0b, r18	; 11
 814:	5f ef       	ldi	r21, 0xFF	; 255
 816:	e3 ec       	ldi	r30, 0xC3	; 195
 818:	f9 e0       	ldi	r31, 0x09	; 9
 81a:	51 50       	subi	r21, 0x01	; 1
 81c:	e0 40       	sbci	r30, 0x00	; 0
 81e:	f0 40       	sbci	r31, 0x00	; 0
 820:	e1 f7       	brne	.-8      	; 0x81a <__LOCK_REGION_LENGTH__+0x41a>
 822:	00 c0       	rjmp	.+0      	; 0x824 <__LOCK_REGION_LENGTH__+0x424>
 824:	00 00       	nop
 826:	9b b8       	out	0x0b, r9	; 11
 828:	3f ef       	ldi	r19, 0xFF	; 255
 82a:	43 ec       	ldi	r20, 0xC3	; 195
 82c:	59 e0       	ldi	r21, 0x09	; 9
 82e:	31 50       	subi	r19, 0x01	; 1
 830:	40 40       	sbci	r20, 0x00	; 0
 832:	50 40       	sbci	r21, 0x00	; 0
 834:	e1 f7       	brne	.-8      	; 0x82e <__LOCK_REGION_LENGTH__+0x42e>
 836:	00 c0       	rjmp	.+0      	; 0x838 <__LOCK_REGION_LENGTH__+0x438>
 838:	00 00       	nop
 83a:	1b b9       	out	0x0b, r17	; 11
 83c:	ef ef       	ldi	r30, 0xFF	; 255
 83e:	f3 ec       	ldi	r31, 0xC3	; 195
 840:	39 e0       	ldi	r19, 0x09	; 9
 842:	e1 50       	subi	r30, 0x01	; 1
 844:	f0 40       	sbci	r31, 0x00	; 0
 846:	30 40       	sbci	r19, 0x00	; 0
 848:	e1 f7       	brne	.-8      	; 0x842 <__LOCK_REGION_LENGTH__+0x442>
 84a:	00 c0       	rjmp	.+0      	; 0x84c <__LOCK_REGION_LENGTH__+0x44c>
 84c:	00 00       	nop
 84e:	db b9       	out	0x0b, r29	; 11
 850:	4f ef       	ldi	r20, 0xFF	; 255
 852:	53 ec       	ldi	r21, 0xC3	; 195
 854:	e9 e0       	ldi	r30, 0x09	; 9
 856:	41 50       	subi	r20, 0x01	; 1
 858:	50 40       	sbci	r21, 0x00	; 0
 85a:	e0 40       	sbci	r30, 0x00	; 0
 85c:	e1 f7       	brne	.-8      	; 0x856 <__LOCK_REGION_LENGTH__+0x456>
 85e:	00 c0       	rjmp	.+0      	; 0x860 <__LOCK_REGION_LENGTH__+0x460>
 860:	00 00       	nop
 862:	0b b9       	out	0x0b, r16	; 11
 864:	ff ef       	ldi	r31, 0xFF	; 255
 866:	33 ec       	ldi	r19, 0xC3	; 195
 868:	49 e0       	ldi	r20, 0x09	; 9
 86a:	f1 50       	subi	r31, 0x01	; 1
 86c:	30 40       	sbci	r19, 0x00	; 0
 86e:	40 40       	sbci	r20, 0x00	; 0
 870:	e1 f7       	brne	.-8      	; 0x86a <__LOCK_REGION_LENGTH__+0x46a>
 872:	00 c0       	rjmp	.+0      	; 0x874 <__LOCK_REGION_LENGTH__+0x474>
 874:	00 00       	nop
 876:	cb b9       	out	0x0b, r28	; 11
 878:	5f ef       	ldi	r21, 0xFF	; 255
 87a:	e3 ec       	ldi	r30, 0xC3	; 195
 87c:	f9 e0       	ldi	r31, 0x09	; 9
 87e:	51 50       	subi	r21, 0x01	; 1
 880:	e0 40       	sbci	r30, 0x00	; 0
 882:	f0 40       	sbci	r31, 0x00	; 0
 884:	e1 f7       	brne	.-8      	; 0x87e <__LOCK_REGION_LENGTH__+0x47e>
 886:	00 c0       	rjmp	.+0      	; 0x888 <__LOCK_REGION_LENGTH__+0x488>
 888:	00 00       	nop
 88a:	01 97       	sbiw	r24, 0x01	; 1
 88c:	09 f0       	breq	.+2      	; 0x890 <__LOCK_REGION_LENGTH__+0x490>
 88e:	bd cd       	rjmp	.-1158   	; 0x40a <__LOCK_REGION_LENGTH__+0xa>
 890:	2f ef       	ldi	r18, 0xFF	; 255
 892:	33 ec       	ldi	r19, 0xC3	; 195
 894:	49 e0       	ldi	r20, 0x09	; 9
 896:	21 50       	subi	r18, 0x01	; 1
 898:	30 40       	sbci	r19, 0x00	; 0
 89a:	40 40       	sbci	r20, 0x00	; 0
 89c:	e1 f7       	brne	.-8      	; 0x896 <__LOCK_REGION_LENGTH__+0x496>
 89e:	00 c0       	rjmp	.+0      	; 0x8a0 <__LOCK_REGION_LENGTH__+0x4a0>
 8a0:	00 00       	nop
 8a2:	44 e0       	ldi	r20, 0x04	; 4
 8a4:	a4 2e       	mov	r10, r20
 8a6:	b1 2c       	mov	r11, r1
 8a8:	0e 94 4b 00 	call	0x96	; 0x96 <turnEverythingOff.1735>
 8ac:	e8 e0       	ldi	r30, 0x08	; 8
 8ae:	f1 e0       	ldi	r31, 0x01	; 1
 8b0:	34 e0       	ldi	r19, 0x04	; 4
 8b2:	c3 2e       	mov	r12, r19
 8b4:	31 e0       	ldi	r19, 0x01	; 1
 8b6:	d3 2e       	mov	r13, r19
 8b8:	82 91       	ld	r24, -Z
 8ba:	88 b9       	out	0x08, r24	; 8
 8bc:	1b b8       	out	0x0b, r1	; 11
 8be:	1b b8       	out	0x0b, r1	; 11
 8c0:	15 b8       	out	0x05, r1	; 5
 8c2:	15 b8       	out	0x05, r1	; 5
 8c4:	1b b8       	out	0x0b, r1	; 11
 8c6:	5f ef       	ldi	r21, 0xFF	; 255
 8c8:	83 ec       	ldi	r24, 0xC3	; 195
 8ca:	99 e0       	ldi	r25, 0x09	; 9
 8cc:	51 50       	subi	r21, 0x01	; 1
 8ce:	80 40       	sbci	r24, 0x00	; 0
 8d0:	90 40       	sbci	r25, 0x00	; 0
 8d2:	e1 f7       	brne	.-8      	; 0x8cc <__LOCK_REGION_LENGTH__+0x4cc>
 8d4:	00 c0       	rjmp	.+0      	; 0x8d6 <__LOCK_REGION_LENGTH__+0x4d6>
 8d6:	00 00       	nop
 8d8:	1b b9       	out	0x0b, r17	; 11
 8da:	1b b8       	out	0x0b, r1	; 11
 8dc:	2f ef       	ldi	r18, 0xFF	; 255
 8de:	33 ec       	ldi	r19, 0xC3	; 195
 8e0:	49 e0       	ldi	r20, 0x09	; 9
 8e2:	21 50       	subi	r18, 0x01	; 1
 8e4:	30 40       	sbci	r19, 0x00	; 0
 8e6:	40 40       	sbci	r20, 0x00	; 0
 8e8:	e1 f7       	brne	.-8      	; 0x8e2 <__LOCK_REGION_LENGTH__+0x4e2>
 8ea:	00 c0       	rjmp	.+0      	; 0x8ec <__LOCK_REGION_LENGTH__+0x4ec>
 8ec:	00 00       	nop
 8ee:	fb b8       	out	0x0b, r15	; 11
 8f0:	15 b8       	out	0x05, r1	; 5
 8f2:	5f ef       	ldi	r21, 0xFF	; 255
 8f4:	83 ec       	ldi	r24, 0xC3	; 195
 8f6:	99 e0       	ldi	r25, 0x09	; 9
 8f8:	51 50       	subi	r21, 0x01	; 1
 8fa:	80 40       	sbci	r24, 0x00	; 0
 8fc:	90 40       	sbci	r25, 0x00	; 0
 8fe:	e1 f7       	brne	.-8      	; 0x8f8 <__LOCK_REGION_LENGTH__+0x4f8>
 900:	00 c0       	rjmp	.+0      	; 0x902 <__stack+0x3>
 902:	00 00       	nop
 904:	15 b9       	out	0x05, r17	; 5
 906:	15 b8       	out	0x05, r1	; 5
 908:	2f ef       	ldi	r18, 0xFF	; 255
 90a:	33 ec       	ldi	r19, 0xC3	; 195
 90c:	49 e0       	ldi	r20, 0x09	; 9
 90e:	21 50       	subi	r18, 0x01	; 1
 910:	30 40       	sbci	r19, 0x00	; 0
 912:	40 40       	sbci	r20, 0x00	; 0
 914:	e1 f7       	brne	.-8      	; 0x90e <__stack+0xf>
 916:	00 c0       	rjmp	.+0      	; 0x918 <__stack+0x19>
 918:	00 00       	nop
 91a:	f5 b8       	out	0x05, r15	; 5
 91c:	18 b8       	out	0x08, r1	; 8
 91e:	5f ef       	ldi	r21, 0xFF	; 255
 920:	83 ec       	ldi	r24, 0xC3	; 195
 922:	99 e0       	ldi	r25, 0x09	; 9
 924:	51 50       	subi	r21, 0x01	; 1
 926:	80 40       	sbci	r24, 0x00	; 0
 928:	90 40       	sbci	r25, 0x00	; 0
 92a:	e1 f7       	brne	.-8      	; 0x924 <__stack+0x25>
 92c:	00 c0       	rjmp	.+0      	; 0x92e <__stack+0x2f>
 92e:	00 00       	nop
 930:	e8 b8       	out	0x08, r14	; 8
 932:	18 b8       	out	0x08, r1	; 8
 934:	2f ef       	ldi	r18, 0xFF	; 255
 936:	33 ec       	ldi	r19, 0xC3	; 195
 938:	49 e0       	ldi	r20, 0x09	; 9
 93a:	21 50       	subi	r18, 0x01	; 1
 93c:	30 40       	sbci	r19, 0x00	; 0
 93e:	40 40       	sbci	r20, 0x00	; 0
 940:	e1 f7       	brne	.-8      	; 0x93a <__stack+0x3b>
 942:	00 c0       	rjmp	.+0      	; 0x944 <__stack+0x45>
 944:	00 00       	nop
 946:	c8 b9       	out	0x08, r28	; 8
 948:	18 b8       	out	0x08, r1	; 8
 94a:	5f ef       	ldi	r21, 0xFF	; 255
 94c:	83 ec       	ldi	r24, 0xC3	; 195
 94e:	99 e0       	ldi	r25, 0x09	; 9
 950:	51 50       	subi	r21, 0x01	; 1
 952:	80 40       	sbci	r24, 0x00	; 0
 954:	90 40       	sbci	r25, 0x00	; 0
 956:	e1 f7       	brne	.-8      	; 0x950 <__stack+0x51>
 958:	00 c0       	rjmp	.+0      	; 0x95a <__stack+0x5b>
 95a:	00 00       	nop
 95c:	c8 b9       	out	0x08, r28	; 8
 95e:	15 b8       	out	0x05, r1	; 5
 960:	2f ef       	ldi	r18, 0xFF	; 255
 962:	33 ec       	ldi	r19, 0xC3	; 195
 964:	49 e0       	ldi	r20, 0x09	; 9
 966:	21 50       	subi	r18, 0x01	; 1
 968:	30 40       	sbci	r19, 0x00	; 0
 96a:	40 40       	sbci	r20, 0x00	; 0
 96c:	e1 f7       	brne	.-8      	; 0x966 <__stack+0x67>
 96e:	00 c0       	rjmp	.+0      	; 0x970 <__stack+0x71>
 970:	00 00       	nop
 972:	c5 b9       	out	0x05, r28	; 5
 974:	15 b8       	out	0x05, r1	; 5
 976:	5f ef       	ldi	r21, 0xFF	; 255
 978:	83 ec       	ldi	r24, 0xC3	; 195
 97a:	99 e0       	ldi	r25, 0x09	; 9
 97c:	51 50       	subi	r21, 0x01	; 1
 97e:	80 40       	sbci	r24, 0x00	; 0
 980:	90 40       	sbci	r25, 0x00	; 0
 982:	e1 f7       	brne	.-8      	; 0x97c <__stack+0x7d>
 984:	00 c0       	rjmp	.+0      	; 0x986 <__stack+0x87>
 986:	00 00       	nop
 988:	95 b8       	out	0x05, r9	; 5
 98a:	1b b8       	out	0x0b, r1	; 11
 98c:	2f ef       	ldi	r18, 0xFF	; 255
 98e:	33 ec       	ldi	r19, 0xC3	; 195
 990:	49 e0       	ldi	r20, 0x09	; 9
 992:	21 50       	subi	r18, 0x01	; 1
 994:	30 40       	sbci	r19, 0x00	; 0
 996:	40 40       	sbci	r20, 0x00	; 0
 998:	e1 f7       	brne	.-8      	; 0x992 <__stack+0x93>
 99a:	00 c0       	rjmp	.+0      	; 0x99c <__stack+0x9d>
 99c:	00 00       	nop
 99e:	cb b9       	out	0x0b, r28	; 11
 9a0:	1b b8       	out	0x0b, r1	; 11
 9a2:	5f ef       	ldi	r21, 0xFF	; 255
 9a4:	83 ec       	ldi	r24, 0xC3	; 195
 9a6:	99 e0       	ldi	r25, 0x09	; 9
 9a8:	51 50       	subi	r21, 0x01	; 1
 9aa:	80 40       	sbci	r24, 0x00	; 0
 9ac:	90 40       	sbci	r25, 0x00	; 0
 9ae:	e1 f7       	brne	.-8      	; 0x9a8 <__stack+0xa9>
 9b0:	00 c0       	rjmp	.+0      	; 0x9b2 <__stack+0xb3>
 9b2:	00 00       	nop
 9b4:	0b b9       	out	0x0b, r16	; 11
 9b6:	1b b8       	out	0x0b, r1	; 11
 9b8:	2f ef       	ldi	r18, 0xFF	; 255
 9ba:	33 ec       	ldi	r19, 0xC3	; 195
 9bc:	49 e0       	ldi	r20, 0x09	; 9
 9be:	21 50       	subi	r18, 0x01	; 1
 9c0:	30 40       	sbci	r19, 0x00	; 0
 9c2:	40 40       	sbci	r20, 0x00	; 0
 9c4:	e1 f7       	brne	.-8      	; 0x9be <__stack+0xbf>
 9c6:	00 c0       	rjmp	.+0      	; 0x9c8 <__stack+0xc9>
 9c8:	00 00       	nop
 9ca:	db b9       	out	0x0b, r29	; 11
 9cc:	ce 16       	cp	r12, r30
 9ce:	df 06       	cpc	r13, r31
 9d0:	09 f0       	breq	.+2      	; 0x9d4 <__stack+0xd5>
 9d2:	72 cf       	rjmp	.-284    	; 0x8b8 <__LOCK_REGION_LENGTH__+0x4b8>
 9d4:	51 e0       	ldi	r21, 0x01	; 1
 9d6:	a5 1a       	sub	r10, r21
 9d8:	b1 08       	sbc	r11, r1
 9da:	09 f0       	breq	.+2      	; 0x9de <__stack+0xdf>
 9dc:	65 cf       	rjmp	.-310    	; 0x8a8 <__LOCK_REGION_LENGTH__+0x4a8>
 9de:	0e 94 4b 00 	call	0x96	; 0x96 <turnEverythingOff.1735>
 9e2:	0e 94 4b 00 	call	0x96	; 0x96 <turnEverythingOff.1735>
 9e6:	25 e0       	ldi	r18, 0x05	; 5
 9e8:	a2 2e       	mov	r10, r18
 9ea:	b1 2c       	mov	r11, r1
 9ec:	1b b8       	out	0x0b, r1	; 11
 9ee:	1b b8       	out	0x0b, r1	; 11
 9f0:	1b b8       	out	0x0b, r1	; 11
 9f2:	1b b8       	out	0x0b, r1	; 11
 9f4:	1b b8       	out	0x0b, r1	; 11
 9f6:	1b b8       	out	0x0b, r1	; 11
 9f8:	1b b8       	out	0x0b, r1	; 11
 9fa:	1b b8       	out	0x0b, r1	; 11
 9fc:	c8 b9       	out	0x08, r28	; 8
 9fe:	d8 b9       	out	0x08, r29	; 8
 a00:	8f ef       	ldi	r24, 0xFF	; 255
 a02:	94 e3       	ldi	r25, 0x34	; 52
 a04:	ec e0       	ldi	r30, 0x0C	; 12
 a06:	81 50       	subi	r24, 0x01	; 1
 a08:	90 40       	sbci	r25, 0x00	; 0
 a0a:	e0 40       	sbci	r30, 0x00	; 0
 a0c:	e1 f7       	brne	.-8      	; 0xa06 <__stack+0x107>
 a0e:	00 c0       	rjmp	.+0      	; 0xa10 <__stack+0x111>
 a10:	00 00       	nop
 a12:	0e 94 4b 00 	call	0x96	; 0x96 <turnEverythingOff.1735>
 a16:	1b b8       	out	0x0b, r1	; 11
 a18:	1b b8       	out	0x0b, r1	; 11
 a1a:	1b b8       	out	0x0b, r1	; 11
 a1c:	1b b8       	out	0x0b, r1	; 11
 a1e:	15 b8       	out	0x05, r1	; 5
 a20:	15 b8       	out	0x05, r1	; 5
 a22:	15 b8       	out	0x05, r1	; 5
 a24:	15 b8       	out	0x05, r1	; 5
 a26:	d8 b9       	out	0x08, r29	; 8
 a28:	08 b9       	out	0x08, r16	; 8
 a2a:	ff ef       	ldi	r31, 0xFF	; 255
 a2c:	24 e3       	ldi	r18, 0x34	; 52
 a2e:	3c e0       	ldi	r19, 0x0C	; 12
 a30:	f1 50       	subi	r31, 0x01	; 1
 a32:	20 40       	sbci	r18, 0x00	; 0
 a34:	30 40       	sbci	r19, 0x00	; 0
 a36:	e1 f7       	brne	.-8      	; 0xa30 <__stack+0x131>
 a38:	00 c0       	rjmp	.+0      	; 0xa3a <__stack+0x13b>
 a3a:	00 00       	nop
 a3c:	0e 94 4b 00 	call	0x96	; 0x96 <turnEverythingOff.1735>
 a40:	15 b8       	out	0x05, r1	; 5
 a42:	15 b8       	out	0x05, r1	; 5
 a44:	15 b8       	out	0x05, r1	; 5
 a46:	15 b8       	out	0x05, r1	; 5
 a48:	15 b8       	out	0x05, r1	; 5
 a4a:	15 b8       	out	0x05, r1	; 5
 a4c:	18 b8       	out	0x08, r1	; 8
 a4e:	18 b8       	out	0x08, r1	; 8
 a50:	18 b9       	out	0x08, r17	; 8
 a52:	d8 b9       	out	0x08, r29	; 8
 a54:	4f ef       	ldi	r20, 0xFF	; 255
 a56:	54 e3       	ldi	r21, 0x34	; 52
 a58:	8c e0       	ldi	r24, 0x0C	; 12
 a5a:	41 50       	subi	r20, 0x01	; 1
 a5c:	50 40       	sbci	r21, 0x00	; 0
 a5e:	80 40       	sbci	r24, 0x00	; 0
 a60:	e1 f7       	brne	.-8      	; 0xa5a <__stack+0x15b>
 a62:	00 c0       	rjmp	.+0      	; 0xa64 <__stack+0x165>
 a64:	00 00       	nop
 a66:	0e 94 4b 00 	call	0x96	; 0x96 <turnEverythingOff.1735>
 a6a:	1b b8       	out	0x0b, r1	; 11
 a6c:	1b b8       	out	0x0b, r1	; 11
 a6e:	1b b8       	out	0x0b, r1	; 11
 a70:	1b b8       	out	0x0b, r1	; 11
 a72:	15 b8       	out	0x05, r1	; 5
 a74:	15 b8       	out	0x05, r1	; 5
 a76:	15 b8       	out	0x05, r1	; 5
 a78:	15 b8       	out	0x05, r1	; 5
 a7a:	18 b9       	out	0x08, r17	; 8
 a7c:	d8 b9       	out	0x08, r29	; 8
 a7e:	9f ef       	ldi	r25, 0xFF	; 255
 a80:	e4 e3       	ldi	r30, 0x34	; 52
 a82:	fc e0       	ldi	r31, 0x0C	; 12
 a84:	91 50       	subi	r25, 0x01	; 1
 a86:	e0 40       	sbci	r30, 0x00	; 0
 a88:	f0 40       	sbci	r31, 0x00	; 0
 a8a:	e1 f7       	brne	.-8      	; 0xa84 <__stack+0x185>
 a8c:	00 c0       	rjmp	.+0      	; 0xa8e <__stack+0x18f>
 a8e:	00 00       	nop
 a90:	0e 94 4b 00 	call	0x96	; 0x96 <turnEverythingOff.1735>
 a94:	1b b8       	out	0x0b, r1	; 11
 a96:	1b b8       	out	0x0b, r1	; 11
 a98:	1b b8       	out	0x0b, r1	; 11
 a9a:	1b b8       	out	0x0b, r1	; 11
 a9c:	1b b8       	out	0x0b, r1	; 11
 a9e:	1b b8       	out	0x0b, r1	; 11
 aa0:	1b b8       	out	0x0b, r1	; 11
 aa2:	1b b8       	out	0x0b, r1	; 11
 aa4:	18 b9       	out	0x08, r17	; 8
 aa6:	d8 b9       	out	0x08, r29	; 8
 aa8:	2f ef       	ldi	r18, 0xFF	; 255
 aaa:	34 e3       	ldi	r19, 0x34	; 52
 aac:	4c e0       	ldi	r20, 0x0C	; 12
 aae:	21 50       	subi	r18, 0x01	; 1
 ab0:	30 40       	sbci	r19, 0x00	; 0
 ab2:	40 40       	sbci	r20, 0x00	; 0
 ab4:	e1 f7       	brne	.-8      	; 0xaae <__stack+0x1af>
 ab6:	00 c0       	rjmp	.+0      	; 0xab8 <__stack+0x1b9>
 ab8:	00 00       	nop
 aba:	0e 94 4b 00 	call	0x96	; 0x96 <turnEverythingOff.1735>
 abe:	1b b8       	out	0x0b, r1	; 11
 ac0:	1b b8       	out	0x0b, r1	; 11
 ac2:	1b b8       	out	0x0b, r1	; 11
 ac4:	1b b8       	out	0x0b, r1	; 11
 ac6:	15 b8       	out	0x05, r1	; 5
 ac8:	15 b8       	out	0x05, r1	; 5
 aca:	15 b8       	out	0x05, r1	; 5
 acc:	15 b8       	out	0x05, r1	; 5
 ace:	d8 b9       	out	0x08, r29	; 8
 ad0:	08 b9       	out	0x08, r16	; 8
 ad2:	5f ef       	ldi	r21, 0xFF	; 255
 ad4:	84 e3       	ldi	r24, 0x34	; 52
 ad6:	9c e0       	ldi	r25, 0x0C	; 12
 ad8:	51 50       	subi	r21, 0x01	; 1
 ada:	80 40       	sbci	r24, 0x00	; 0
 adc:	90 40       	sbci	r25, 0x00	; 0
 ade:	e1 f7       	brne	.-8      	; 0xad8 <__stack+0x1d9>
 ae0:	00 c0       	rjmp	.+0      	; 0xae2 <__stack+0x1e3>
 ae2:	00 00       	nop
 ae4:	0e 94 4b 00 	call	0x96	; 0x96 <turnEverythingOff.1735>
 ae8:	15 b8       	out	0x05, r1	; 5
 aea:	15 b8       	out	0x05, r1	; 5
 aec:	15 b8       	out	0x05, r1	; 5
 aee:	15 b8       	out	0x05, r1	; 5
 af0:	15 b8       	out	0x05, r1	; 5
 af2:	15 b8       	out	0x05, r1	; 5
 af4:	18 b8       	out	0x08, r1	; 8
 af6:	18 b8       	out	0x08, r1	; 8
 af8:	08 b9       	out	0x08, r16	; 8
 afa:	c8 b9       	out	0x08, r28	; 8
 afc:	ef ef       	ldi	r30, 0xFF	; 255
 afe:	f4 e3       	ldi	r31, 0x34	; 52
 b00:	2c e0       	ldi	r18, 0x0C	; 12
 b02:	e1 50       	subi	r30, 0x01	; 1
 b04:	f0 40       	sbci	r31, 0x00	; 0
 b06:	20 40       	sbci	r18, 0x00	; 0
 b08:	e1 f7       	brne	.-8      	; 0xb02 <__stack+0x203>
 b0a:	00 c0       	rjmp	.+0      	; 0xb0c <__stack+0x20d>
 b0c:	00 00       	nop
 b0e:	0e 94 4b 00 	call	0x96	; 0x96 <turnEverythingOff.1735>
 b12:	1b b8       	out	0x0b, r1	; 11
 b14:	1b b8       	out	0x0b, r1	; 11
 b16:	1b b8       	out	0x0b, r1	; 11
 b18:	1b b8       	out	0x0b, r1	; 11
 b1a:	15 b8       	out	0x05, r1	; 5
 b1c:	15 b8       	out	0x05, r1	; 5
 b1e:	15 b8       	out	0x05, r1	; 5
 b20:	15 b8       	out	0x05, r1	; 5
 b22:	08 b9       	out	0x08, r16	; 8
 b24:	c8 b9       	out	0x08, r28	; 8
 b26:	3f ef       	ldi	r19, 0xFF	; 255
 b28:	44 e3       	ldi	r20, 0x34	; 52
 b2a:	5c e0       	ldi	r21, 0x0C	; 12
 b2c:	31 50       	subi	r19, 0x01	; 1
 b2e:	40 40       	sbci	r20, 0x00	; 0
 b30:	50 40       	sbci	r21, 0x00	; 0
 b32:	e1 f7       	brne	.-8      	; 0xb2c <__stack+0x22d>
 b34:	00 c0       	rjmp	.+0      	; 0xb36 <__stack+0x237>
 b36:	00 00       	nop
 b38:	0e 94 4b 00 	call	0x96	; 0x96 <turnEverythingOff.1735>
 b3c:	81 e0       	ldi	r24, 0x01	; 1
 b3e:	a8 1a       	sub	r10, r24
 b40:	b1 08       	sbc	r11, r1
 b42:	09 f0       	breq	.+2      	; 0xb46 <__stack+0x247>
 b44:	53 cf       	rjmp	.-346    	; 0x9ec <__stack+0xed>
 b46:	1b b8       	out	0x0b, r1	; 11
 b48:	1b b8       	out	0x0b, r1	; 11
 b4a:	1b b8       	out	0x0b, r1	; 11
 b4c:	1b b8       	out	0x0b, r1	; 11
 b4e:	1b b8       	out	0x0b, r1	; 11
 b50:	1b b8       	out	0x0b, r1	; 11
 b52:	1b b8       	out	0x0b, r1	; 11
 b54:	1b b8       	out	0x0b, r1	; 11
 b56:	88 b8       	out	0x08, r8	; 8
 b58:	78 b8       	out	0x08, r7	; 8
 b5a:	9f ef       	ldi	r25, 0xFF	; 255
 b5c:	e4 e3       	ldi	r30, 0x34	; 52
 b5e:	fc e0       	ldi	r31, 0x0C	; 12
 b60:	91 50       	subi	r25, 0x01	; 1
 b62:	e0 40       	sbci	r30, 0x00	; 0
 b64:	f0 40       	sbci	r31, 0x00	; 0
 b66:	e1 f7       	brne	.-8      	; 0xb60 <__stack+0x261>
 b68:	00 c0       	rjmp	.+0      	; 0xb6a <__stack+0x26b>
 b6a:	00 00       	nop
 b6c:	0e 94 4b 00 	call	0x96	; 0x96 <turnEverythingOff.1735>
 b70:	0e 94 4b 00 	call	0x96	; 0x96 <turnEverythingOff.1735>
 b74:	96 e0       	ldi	r25, 0x06	; 6
 b76:	a9 2e       	mov	r10, r25
 b78:	b1 2c       	mov	r11, r1
 b7a:	f6 01       	movw	r30, r12
 b7c:	83 81       	ldd	r24, Z+3	; 0x03
 b7e:	88 b9       	out	0x08, r24	; 8
 b80:	0e 94 56 00 	call	0xac	; 0xac <turnColumnsOff.1739>
 b84:	1b b8       	out	0x0b, r1	; 11
 b86:	1b b8       	out	0x0b, r1	; 11
 b88:	15 b8       	out	0x05, r1	; 5
 b8a:	18 b8       	out	0x08, r1	; 8
 b8c:	ff ef       	ldi	r31, 0xFF	; 255
 b8e:	23 ec       	ldi	r18, 0xC3	; 195
 b90:	39 e0       	ldi	r19, 0x09	; 9
 b92:	f1 50       	subi	r31, 0x01	; 1
 b94:	20 40       	sbci	r18, 0x00	; 0
 b96:	30 40       	sbci	r19, 0x00	; 0
 b98:	e1 f7       	brne	.-8      	; 0xb92 <__stack+0x293>
 b9a:	00 c0       	rjmp	.+0      	; 0xb9c <__stack+0x29d>
 b9c:	00 00       	nop
 b9e:	0e 94 56 00 	call	0xac	; 0xac <turnColumnsOff.1739>
 ba2:	1b b8       	out	0x0b, r1	; 11
 ba4:	1b b8       	out	0x0b, r1	; 11
 ba6:	15 b8       	out	0x05, r1	; 5
 ba8:	15 b8       	out	0x05, r1	; 5
 baa:	4f ef       	ldi	r20, 0xFF	; 255
 bac:	53 ec       	ldi	r21, 0xC3	; 195
 bae:	89 e0       	ldi	r24, 0x09	; 9
 bb0:	41 50       	subi	r20, 0x01	; 1
 bb2:	50 40       	sbci	r21, 0x00	; 0
 bb4:	80 40       	sbci	r24, 0x00	; 0
 bb6:	e1 f7       	brne	.-8      	; 0xbb0 <__stack+0x2b1>
 bb8:	00 c0       	rjmp	.+0      	; 0xbba <__stack+0x2bb>
 bba:	00 00       	nop
 bbc:	0e 94 56 00 	call	0xac	; 0xac <turnColumnsOff.1739>
 bc0:	1b b8       	out	0x0b, r1	; 11
 bc2:	1b b8       	out	0x0b, r1	; 11
 bc4:	15 b8       	out	0x05, r1	; 5
 bc6:	15 b8       	out	0x05, r1	; 5
 bc8:	9f ef       	ldi	r25, 0xFF	; 255
 bca:	e3 ec       	ldi	r30, 0xC3	; 195
 bcc:	f9 e0       	ldi	r31, 0x09	; 9
 bce:	91 50       	subi	r25, 0x01	; 1
 bd0:	e0 40       	sbci	r30, 0x00	; 0
 bd2:	f0 40       	sbci	r31, 0x00	; 0
 bd4:	e1 f7       	brne	.-8      	; 0xbce <__stack+0x2cf>
 bd6:	00 c0       	rjmp	.+0      	; 0xbd8 <__stack+0x2d9>
 bd8:	00 00       	nop
 bda:	0e 94 56 00 	call	0xac	; 0xac <turnColumnsOff.1739>
 bde:	1b b8       	out	0x0b, r1	; 11
 be0:	1b b8       	out	0x0b, r1	; 11
 be2:	15 b8       	out	0x05, r1	; 5
 be4:	15 b8       	out	0x05, r1	; 5
 be6:	2f ef       	ldi	r18, 0xFF	; 255
 be8:	33 ec       	ldi	r19, 0xC3	; 195
 bea:	49 e0       	ldi	r20, 0x09	; 9
 bec:	21 50       	subi	r18, 0x01	; 1
 bee:	30 40       	sbci	r19, 0x00	; 0
 bf0:	40 40       	sbci	r20, 0x00	; 0
 bf2:	e1 f7       	brne	.-8      	; 0xbec <__stack+0x2ed>
 bf4:	00 c0       	rjmp	.+0      	; 0xbf6 <__stack+0x2f7>
 bf6:	00 00       	nop
 bf8:	0e 94 56 00 	call	0xac	; 0xac <turnColumnsOff.1739>
 bfc:	1b b8       	out	0x0b, r1	; 11
 bfe:	1b b8       	out	0x0b, r1	; 11
 c00:	15 b8       	out	0x05, r1	; 5
 c02:	15 b8       	out	0x05, r1	; 5
 c04:	5f ef       	ldi	r21, 0xFF	; 255
 c06:	83 ec       	ldi	r24, 0xC3	; 195
 c08:	99 e0       	ldi	r25, 0x09	; 9
 c0a:	51 50       	subi	r21, 0x01	; 1
 c0c:	80 40       	sbci	r24, 0x00	; 0
 c0e:	90 40       	sbci	r25, 0x00	; 0
 c10:	e1 f7       	brne	.-8      	; 0xc0a <__stack+0x30b>
 c12:	00 c0       	rjmp	.+0      	; 0xc14 <__stack+0x315>
 c14:	00 00       	nop
 c16:	0e 94 56 00 	call	0xac	; 0xac <turnColumnsOff.1739>
 c1a:	1b b8       	out	0x0b, r1	; 11
 c1c:	1b b8       	out	0x0b, r1	; 11
 c1e:	15 b8       	out	0x05, r1	; 5
 c20:	18 b8       	out	0x08, r1	; 8
 c22:	ef ef       	ldi	r30, 0xFF	; 255
 c24:	f3 ec       	ldi	r31, 0xC3	; 195
 c26:	29 e0       	ldi	r18, 0x09	; 9
 c28:	e1 50       	subi	r30, 0x01	; 1
 c2a:	f0 40       	sbci	r31, 0x00	; 0
 c2c:	20 40       	sbci	r18, 0x00	; 0
 c2e:	e1 f7       	brne	.-8      	; 0xc28 <__stack+0x329>
 c30:	00 c0       	rjmp	.+0      	; 0xc32 <__stack+0x333>
 c32:	00 00       	nop
 c34:	31 e0       	ldi	r19, 0x01	; 1
 c36:	a3 1a       	sub	r10, r19
 c38:	b1 08       	sbc	r11, r1
 c3a:	09 f0       	breq	.+2      	; 0xc3e <__stack+0x33f>
 c3c:	9e cf       	rjmp	.-196    	; 0xb7a <__stack+0x27b>
 c3e:	41 e0       	ldi	r20, 0x01	; 1
 c40:	c4 1a       	sub	r12, r20
 c42:	d1 08       	sbc	r13, r1
 c44:	50 e0       	ldi	r21, 0x00	; 0
 c46:	c5 16       	cp	r12, r21
 c48:	51 e0       	ldi	r21, 0x01	; 1
 c4a:	d5 06       	cpc	r13, r21
 c4c:	09 f0       	breq	.+2      	; 0xc50 <__stack+0x351>
 c4e:	92 cf       	rjmp	.-220    	; 0xb74 <__stack+0x275>
 c50:	0e 94 56 00 	call	0xac	; 0xac <turnColumnsOff.1739>
 c54:	1b b8       	out	0x0b, r1	; 11
 c56:	1b b8       	out	0x0b, r1	; 11
 c58:	15 b8       	out	0x05, r1	; 5
 c5a:	18 b8       	out	0x08, r1	; 8
 c5c:	8f ef       	ldi	r24, 0xFF	; 255
 c5e:	93 ec       	ldi	r25, 0xC3	; 195
 c60:	e9 e0       	ldi	r30, 0x09	; 9
 c62:	81 50       	subi	r24, 0x01	; 1
 c64:	90 40       	sbci	r25, 0x00	; 0
 c66:	e0 40       	sbci	r30, 0x00	; 0
 c68:	e1 f7       	brne	.-8      	; 0xc62 <__stack+0x363>
 c6a:	00 c0       	rjmp	.+0      	; 0xc6c <__stack+0x36d>
 c6c:	00 00       	nop
 c6e:	0e 94 51 00 	call	0xa2	; 0xa2 <turnEverythingOn.1737>
 c72:	8e e1       	ldi	r24, 0x1E	; 30
 c74:	c8 2e       	mov	r12, r24
 c76:	d1 2c       	mov	r13, r1
 c78:	0e 94 4b 00 	call	0x96	; 0x96 <turnEverythingOff.1735>
 c7c:	ff ef       	ldi	r31, 0xFF	; 255
 c7e:	23 ec       	ldi	r18, 0xC3	; 195
 c80:	39 e0       	ldi	r19, 0x09	; 9
 c82:	f1 50       	subi	r31, 0x01	; 1
 c84:	20 40       	sbci	r18, 0x00	; 0
 c86:	30 40       	sbci	r19, 0x00	; 0
 c88:	e1 f7       	brne	.-8      	; 0xc82 <__stack+0x383>
 c8a:	00 c0       	rjmp	.+0      	; 0xc8c <__stack+0x38d>
 c8c:	00 00       	nop
 c8e:	0e 94 51 00 	call	0xa2	; 0xa2 <turnEverythingOn.1737>
 c92:	4f ef       	ldi	r20, 0xFF	; 255
 c94:	52 e5       	ldi	r21, 0x52	; 82
 c96:	87 e0       	ldi	r24, 0x07	; 7
 c98:	41 50       	subi	r20, 0x01	; 1
 c9a:	50 40       	sbci	r21, 0x00	; 0
 c9c:	80 40       	sbci	r24, 0x00	; 0
 c9e:	e1 f7       	brne	.-8      	; 0xc98 <__stack+0x399>
 ca0:	00 c0       	rjmp	.+0      	; 0xca2 <__stack+0x3a3>
 ca2:	00 00       	nop
 ca4:	91 e0       	ldi	r25, 0x01	; 1
 ca6:	c9 1a       	sub	r12, r25
 ca8:	d1 08       	sbc	r13, r1
 caa:	31 f7       	brne	.-52     	; 0xc78 <__stack+0x379>
 cac:	0e 94 4b 00 	call	0x96	; 0x96 <turnEverythingOff.1735>
 cb0:	ef ef       	ldi	r30, 0xFF	; 255
 cb2:	f3 ed       	ldi	r31, 0xD3	; 211
 cb4:	20 e3       	ldi	r18, 0x30	; 48
 cb6:	e1 50       	subi	r30, 0x01	; 1
 cb8:	f0 40       	sbci	r31, 0x00	; 0
 cba:	20 40       	sbci	r18, 0x00	; 0
 cbc:	e1 f7       	brne	.-8      	; 0xcb6 <__stack+0x3b7>
 cbe:	00 c0       	rjmp	.+0      	; 0xcc0 <__stack+0x3c1>
 cc0:	00 00       	nop
 cc2:	15 ca       	rjmp	.-3030   	; 0xee <main+0x34>

00000cc4 <_exit>:
 cc4:	f8 94       	cli

00000cc6 <__stop_program>:
 cc6:	ff cf       	rjmp	.-2      	; 0xcc6 <__stop_program>
