
4*4*4_Led_Cube.elf:     file format elf32-avr

Sections:
Idx Name          Size      VMA       LMA       File off  Algn
  0 .data         00000028  00800100  00000b30  00000ba4  2**0
                  CONTENTS, ALLOC, LOAD, DATA
  1 .text         00000b30  00000000  00000000  00000074  2**1
                  CONTENTS, ALLOC, LOAD, READONLY, CODE
  2 .comment      00000011  00000000  00000000  00000bcc  2**0
                  CONTENTS, READONLY
  3 .note.gnu.avr.deviceinfo 00000040  00000000  00000000  00000be0  2**2
                  CONTENTS, READONLY
  4 .debug_info   000005f4  00000000  00000000  00000c20  2**0
                  CONTENTS, READONLY, DEBUGGING
  5 .debug_abbrev 000005a2  00000000  00000000  00001214  2**0
                  CONTENTS, READONLY, DEBUGGING
  6 .debug_line   0000001a  00000000  00000000  000017b6  2**0
                  CONTENTS, READONLY, DEBUGGING
  7 .debug_str    00000208  00000000  00000000  000017d0  2**0
                  CONTENTS, READONLY, DEBUGGING

Disassembly of section .text:

00000000 <__vectors>:
   0:	0c 94 34 00 	jmp	0x68	; 0x68 <__ctors_end>
   4:	0c 94 49 00 	jmp	0x92	; 0x92 <__bad_interrupt>
   8:	0c 94 49 00 	jmp	0x92	; 0x92 <__bad_interrupt>
   c:	0c 94 49 00 	jmp	0x92	; 0x92 <__bad_interrupt>
  10:	0c 94 49 00 	jmp	0x92	; 0x92 <__bad_interrupt>
  14:	0c 94 49 00 	jmp	0x92	; 0x92 <__bad_interrupt>
  18:	0c 94 49 00 	jmp	0x92	; 0x92 <__bad_interrupt>
  1c:	0c 94 49 00 	jmp	0x92	; 0x92 <__bad_interrupt>
  20:	0c 94 49 00 	jmp	0x92	; 0x92 <__bad_interrupt>
  24:	0c 94 49 00 	jmp	0x92	; 0x92 <__bad_interrupt>
  28:	0c 94 49 00 	jmp	0x92	; 0x92 <__bad_interrupt>
  2c:	0c 94 49 00 	jmp	0x92	; 0x92 <__bad_interrupt>
  30:	0c 94 49 00 	jmp	0x92	; 0x92 <__bad_interrupt>
  34:	0c 94 49 00 	jmp	0x92	; 0x92 <__bad_interrupt>
  38:	0c 94 49 00 	jmp	0x92	; 0x92 <__bad_interrupt>
  3c:	0c 94 49 00 	jmp	0x92	; 0x92 <__bad_interrupt>
  40:	0c 94 49 00 	jmp	0x92	; 0x92 <__bad_interrupt>
  44:	0c 94 49 00 	jmp	0x92	; 0x92 <__bad_interrupt>
  48:	0c 94 49 00 	jmp	0x92	; 0x92 <__bad_interrupt>
  4c:	0c 94 49 00 	jmp	0x92	; 0x92 <__bad_interrupt>
  50:	0c 94 49 00 	jmp	0x92	; 0x92 <__bad_interrupt>
  54:	0c 94 49 00 	jmp	0x92	; 0x92 <__bad_interrupt>
  58:	0c 94 49 00 	jmp	0x92	; 0x92 <__bad_interrupt>
  5c:	0c 94 49 00 	jmp	0x92	; 0x92 <__bad_interrupt>
  60:	0c 94 49 00 	jmp	0x92	; 0x92 <__bad_interrupt>
  64:	0c 94 49 00 	jmp	0x92	; 0x92 <__bad_interrupt>

00000068 <__ctors_end>:
  68:	11 24       	eor	r1, r1
  6a:	1f be       	out	0x3f, r1	; 63
  6c:	cf ef       	ldi	r28, 0xFF	; 255
  6e:	d8 e0       	ldi	r29, 0x08	; 8
  70:	de bf       	out	0x3e, r29	; 62
  72:	cd bf       	out	0x3d, r28	; 61

00000074 <__do_copy_data>:
  74:	11 e0       	ldi	r17, 0x01	; 1
  76:	a0 e0       	ldi	r26, 0x00	; 0
  78:	b1 e0       	ldi	r27, 0x01	; 1
  7a:	e0 e3       	ldi	r30, 0x30	; 48
  7c:	fb e0       	ldi	r31, 0x0B	; 11
  7e:	02 c0       	rjmp	.+4      	; 0x84 <__do_copy_data+0x10>
  80:	05 90       	lpm	r0, Z+
  82:	0d 92       	st	X+, r0
  84:	a8 32       	cpi	r26, 0x28	; 40
  86:	b1 07       	cpc	r27, r17
  88:	d9 f7       	brne	.-10     	; 0x80 <__do_copy_data+0xc>
  8a:	0e 94 6c 05 	call	0xad8	; 0xad8 <main>
  8e:	0c 94 96 05 	jmp	0xb2c	; 0xb2c <_exit>

00000092 <__bad_interrupt>:
  92:	0c 94 00 00 	jmp	0	; 0x0 <__vectors>

00000096 <turnEverythingOff>:
  96:	8f ef       	ldi	r24, 0xFF	; 255
  98:	8b b9       	out	0x0b, r24	; 11
  9a:	90 e3       	ldi	r25, 0x30	; 48
  9c:	98 b9       	out	0x08, r25	; 8
  9e:	85 b9       	out	0x05, r24	; 5
  a0:	08 95       	ret

000000a2 <turnEverythingOn>:
  a2:	1b b8       	out	0x0b, r1	; 11
  a4:	40 9a       	sbi	0x08, 0	; 8
  a6:	41 9a       	sbi	0x08, 1	; 8
  a8:	42 9a       	sbi	0x08, 2	; 8
  aa:	43 9a       	sbi	0x08, 3	; 8
  ac:	44 98       	cbi	0x08, 4	; 8
  ae:	45 98       	cbi	0x08, 5	; 8
  b0:	28 98       	cbi	0x05, 0	; 5
  b2:	29 98       	cbi	0x05, 1	; 5
  b4:	2a 98       	cbi	0x05, 2	; 5
  b6:	2b 98       	cbi	0x05, 3	; 5
  b8:	2c 98       	cbi	0x05, 4	; 5
  ba:	2d 98       	cbi	0x05, 5	; 5
  bc:	08 95       	ret

000000be <turnColumnsOff>:
  be:	9f ef       	ldi	r25, 0xFF	; 255
  c0:	9b b9       	out	0x0b, r25	; 11
  c2:	88 b1       	in	r24, 0x08	; 8
  c4:	80 63       	ori	r24, 0x30	; 48
  c6:	88 b9       	out	0x08, r24	; 8
  c8:	95 b9       	out	0x05, r25	; 5
  ca:	08 95       	ret

000000cc <flickerOn>:
  cc:	cf 93       	push	r28
  ce:	df 93       	push	r29
  d0:	ce e1       	ldi	r28, 0x1E	; 30
  d2:	d0 e0       	ldi	r29, 0x00	; 0
  d4:	0e 94 51 00 	call	0xa2	; 0xa2 <turnEverythingOn>
  d8:	2f ef       	ldi	r18, 0xFF	; 255
  da:	83 ec       	ldi	r24, 0xC3	; 195
  dc:	99 e0       	ldi	r25, 0x09	; 9
  de:	21 50       	subi	r18, 0x01	; 1
  e0:	80 40       	sbci	r24, 0x00	; 0
  e2:	90 40       	sbci	r25, 0x00	; 0
  e4:	e1 f7       	brne	.-8      	; 0xde <flickerOn+0x12>
  e6:	00 c0       	rjmp	.+0      	; 0xe8 <flickerOn+0x1c>
  e8:	00 00       	nop
  ea:	0e 94 4b 00 	call	0x96	; 0x96 <turnEverythingOff>
  ee:	2f ef       	ldi	r18, 0xFF	; 255
  f0:	82 e5       	ldi	r24, 0x52	; 82
  f2:	97 e0       	ldi	r25, 0x07	; 7
  f4:	21 50       	subi	r18, 0x01	; 1
  f6:	80 40       	sbci	r24, 0x00	; 0
  f8:	90 40       	sbci	r25, 0x00	; 0
  fa:	e1 f7       	brne	.-8      	; 0xf4 <flickerOn+0x28>
  fc:	00 c0       	rjmp	.+0      	; 0xfe <flickerOn+0x32>
  fe:	00 00       	nop
 100:	21 97       	sbiw	r28, 0x01	; 1
 102:	41 f7       	brne	.-48     	; 0xd4 <flickerOn+0x8>
 104:	df 91       	pop	r29
 106:	cf 91       	pop	r28
 108:	08 95       	ret

0000010a <turnOnAndOffAllByLayerUpAndDownNotTimed>:
 10a:	ef 92       	push	r14
 10c:	ff 92       	push	r15
 10e:	0f 93       	push	r16
 110:	1f 93       	push	r17
 112:	cf 93       	push	r28
 114:	df 93       	push	r29
 116:	c4 e0       	ldi	r28, 0x04	; 4
 118:	d0 e0       	ldi	r29, 0x00	; 0
 11a:	04 e0       	ldi	r16, 0x04	; 4
 11c:	11 e0       	ldi	r17, 0x01	; 1
 11e:	84 e0       	ldi	r24, 0x04	; 4
 120:	e8 2e       	mov	r14, r24
 122:	81 e0       	ldi	r24, 0x01	; 1
 124:	f8 2e       	mov	r15, r24
 126:	0e 94 51 00 	call	0xa2	; 0xa2 <turnEverythingOn>
 12a:	60 e0       	ldi	r22, 0x00	; 0
 12c:	71 e0       	ldi	r23, 0x01	; 1
 12e:	e4 e0       	ldi	r30, 0x04	; 4
 130:	f1 e0       	ldi	r31, 0x01	; 1
 132:	98 b1       	in	r25, 0x08	; 8
 134:	82 91       	ld	r24, -Z
 136:	80 95       	com	r24
 138:	89 23       	and	r24, r25
 13a:	88 b9       	out	0x08, r24	; 8
 13c:	2f e7       	ldi	r18, 0x7F	; 127
 13e:	39 ea       	ldi	r19, 0xA9	; 169
 140:	43 e0       	ldi	r20, 0x03	; 3
 142:	21 50       	subi	r18, 0x01	; 1
 144:	30 40       	sbci	r19, 0x00	; 0
 146:	40 40       	sbci	r20, 0x00	; 0
 148:	e1 f7       	brne	.-8      	; 0x142 <turnOnAndOffAllByLayerUpAndDownNotTimed+0x38>
 14a:	00 c0       	rjmp	.+0      	; 0x14c <turnOnAndOffAllByLayerUpAndDownNotTimed+0x42>
 14c:	00 00       	nop
 14e:	81 e0       	ldi	r24, 0x01	; 1
 150:	e0 30       	cpi	r30, 0x00	; 0
 152:	f8 07       	cpc	r31, r24
 154:	71 f7       	brne	.-36     	; 0x132 <turnOnAndOffAllByLayerUpAndDownNotTimed+0x28>
 156:	e8 e0       	ldi	r30, 0x08	; 8
 158:	f1 e0       	ldi	r31, 0x01	; 1
 15a:	84 e0       	ldi	r24, 0x04	; 4
 15c:	91 e0       	ldi	r25, 0x01	; 1
 15e:	38 b1       	in	r19, 0x08	; 8
 160:	dc 01       	movw	r26, r24
 162:	2d 91       	ld	r18, X+
 164:	cd 01       	movw	r24, r26
 166:	23 2b       	or	r18, r19
 168:	28 b9       	out	0x08, r18	; 8
 16a:	bf e7       	ldi	r27, 0x7F	; 127
 16c:	29 ea       	ldi	r18, 0xA9	; 169
 16e:	33 e0       	ldi	r19, 0x03	; 3
 170:	b1 50       	subi	r27, 0x01	; 1
 172:	20 40       	sbci	r18, 0x00	; 0
 174:	30 40       	sbci	r19, 0x00	; 0
 176:	e1 f7       	brne	.-8      	; 0x170 <turnOnAndOffAllByLayerUpAndDownNotTimed+0x66>
 178:	00 c0       	rjmp	.+0      	; 0x17a <turnOnAndOffAllByLayerUpAndDownNotTimed+0x70>
 17a:	00 00       	nop
 17c:	e8 17       	cp	r30, r24
 17e:	f9 07       	cpc	r31, r25
 180:	71 f7       	brne	.-36     	; 0x15e <turnOnAndOffAllByLayerUpAndDownNotTimed+0x54>
 182:	98 b1       	in	r25, 0x08	; 8
 184:	db 01       	movw	r26, r22
 186:	8d 91       	ld	r24, X+
 188:	bd 01       	movw	r22, r26
 18a:	80 95       	com	r24
 18c:	89 23       	and	r24, r25
 18e:	88 b9       	out	0x08, r24	; 8
 190:	bf e7       	ldi	r27, 0x7F	; 127
 192:	29 ea       	ldi	r18, 0xA9	; 169
 194:	33 e0       	ldi	r19, 0x03	; 3
 196:	b1 50       	subi	r27, 0x01	; 1
 198:	20 40       	sbci	r18, 0x00	; 0
 19a:	30 40       	sbci	r19, 0x00	; 0
 19c:	e1 f7       	brne	.-8      	; 0x196 <turnOnAndOffAllByLayerUpAndDownNotTimed+0x8c>
 19e:	00 c0       	rjmp	.+0      	; 0x1a0 <turnOnAndOffAllByLayerUpAndDownNotTimed+0x96>
 1a0:	00 00       	nop
 1a2:	06 17       	cp	r16, r22
 1a4:	17 07       	cpc	r17, r23
 1a6:	69 f7       	brne	.-38     	; 0x182 <turnOnAndOffAllByLayerUpAndDownNotTimed+0x78>
 1a8:	98 b1       	in	r25, 0x08	; 8
 1aa:	82 91       	ld	r24, -Z
 1ac:	89 2b       	or	r24, r25
 1ae:	88 b9       	out	0x08, r24	; 8
 1b0:	4f e7       	ldi	r20, 0x7F	; 127
 1b2:	89 ea       	ldi	r24, 0xA9	; 169
 1b4:	93 e0       	ldi	r25, 0x03	; 3
 1b6:	41 50       	subi	r20, 0x01	; 1
 1b8:	80 40       	sbci	r24, 0x00	; 0
 1ba:	90 40       	sbci	r25, 0x00	; 0
 1bc:	e1 f7       	brne	.-8      	; 0x1b6 <turnOnAndOffAllByLayerUpAndDownNotTimed+0xac>
 1be:	00 c0       	rjmp	.+0      	; 0x1c0 <turnOnAndOffAllByLayerUpAndDownNotTimed+0xb6>
 1c0:	00 00       	nop
 1c2:	ee 16       	cp	r14, r30
 1c4:	ff 06       	cpc	r15, r31
 1c6:	81 f7       	brne	.-32     	; 0x1a8 <turnOnAndOffAllByLayerUpAndDownNotTimed+0x9e>
 1c8:	21 97       	sbiw	r28, 0x01	; 1
 1ca:	09 f0       	breq	.+2      	; 0x1ce <turnOnAndOffAllByLayerUpAndDownNotTimed+0xc4>
 1cc:	ac cf       	rjmp	.-168    	; 0x126 <turnOnAndOffAllByLayerUpAndDownNotTimed+0x1c>
 1ce:	df 91       	pop	r29
 1d0:	cf 91       	pop	r28
 1d2:	1f 91       	pop	r17
 1d4:	0f 91       	pop	r16
 1d6:	ff 90       	pop	r15
 1d8:	ef 90       	pop	r14
 1da:	08 95       	ret

000001dc <turnOnAndOffAllByColumnSideways>:
 1dc:	4f 92       	push	r4
 1de:	5f 92       	push	r5
 1e0:	6f 92       	push	r6
 1e2:	7f 92       	push	r7
 1e4:	8f 92       	push	r8
 1e6:	9f 92       	push	r9
 1e8:	af 92       	push	r10
 1ea:	bf 92       	push	r11
 1ec:	cf 92       	push	r12
 1ee:	df 92       	push	r13
 1f0:	ef 92       	push	r14
 1f2:	ff 92       	push	r15
 1f4:	0f 93       	push	r16
 1f6:	1f 93       	push	r17
 1f8:	cf 93       	push	r28
 1fa:	df 93       	push	r29
 1fc:	0e 94 4b 00 	call	0x96	; 0x96 <turnEverythingOff>
 200:	40 9a       	sbi	0x08, 0	; 8
 202:	41 9a       	sbi	0x08, 1	; 8
 204:	42 9a       	sbi	0x08, 2	; 8
 206:	43 9a       	sbi	0x08, 3	; 8
 208:	83 e0       	ldi	r24, 0x03	; 3
 20a:	90 e0       	ldi	r25, 0x00	; 0
 20c:	6c e0       	ldi	r22, 0x0C	; 12
 20e:	e6 2e       	mov	r14, r22
 210:	61 e0       	ldi	r22, 0x01	; 1
 212:	f6 2e       	mov	r15, r22
 214:	70 e1       	ldi	r23, 0x10	; 16
 216:	87 2e       	mov	r8, r23
 218:	71 e0       	ldi	r23, 0x01	; 1
 21a:	97 2e       	mov	r9, r23
 21c:	e4 e1       	ldi	r30, 0x14	; 20
 21e:	6e 2e       	mov	r6, r30
 220:	e1 e0       	ldi	r30, 0x01	; 1
 222:	7e 2e       	mov	r7, r30
 224:	6c e1       	ldi	r22, 0x1C	; 28
 226:	71 e0       	ldi	r23, 0x01	; 1
 228:	f0 e2       	ldi	r31, 0x20	; 32
 22a:	4f 2e       	mov	r4, r31
 22c:	f1 e0       	ldi	r31, 0x01	; 1
 22e:	5f 2e       	mov	r5, r31
 230:	04 e2       	ldi	r16, 0x24	; 36
 232:	11 e0       	ldi	r17, 0x01	; 1
 234:	a8 e0       	ldi	r26, 0x08	; 8
 236:	b1 e0       	ldi	r27, 0x01	; 1
 238:	fd 01       	movw	r30, r26
 23a:	cb b0       	in	r12, 0x0b	; 11
 23c:	d1 90       	ld	r13, Z+
 23e:	d0 94       	com	r13
 240:	dc 20       	and	r13, r12
 242:	db b8       	out	0x0b, r13	; 11
 244:	2f ef       	ldi	r18, 0xFF	; 255
 246:	31 ee       	ldi	r19, 0xE1	; 225
 248:	44 e0       	ldi	r20, 0x04	; 4
 24a:	21 50       	subi	r18, 0x01	; 1
 24c:	30 40       	sbci	r19, 0x00	; 0
 24e:	40 40       	sbci	r20, 0x00	; 0
 250:	e1 f7       	brne	.-8      	; 0x24a <turnOnAndOffAllByColumnSideways+0x6e>
 252:	00 c0       	rjmp	.+0      	; 0x254 <turnOnAndOffAllByColumnSideways+0x78>
 254:	00 00       	nop
 256:	c1 e0       	ldi	r28, 0x01	; 1
 258:	ec 30       	cpi	r30, 0x0C	; 12
 25a:	fc 07       	cpc	r31, r28
 25c:	71 f7       	brne	.-36     	; 0x23a <turnOnAndOffAllByColumnSideways+0x5e>
 25e:	ec e0       	ldi	r30, 0x0C	; 12
 260:	f1 e0       	ldi	r31, 0x01	; 1
 262:	cb b0       	in	r12, 0x0b	; 11
 264:	d1 90       	ld	r13, Z+
 266:	d0 94       	com	r13
 268:	dc 20       	and	r13, r12
 26a:	db b8       	out	0x0b, r13	; 11
 26c:	df ef       	ldi	r29, 0xFF	; 255
 26e:	21 ee       	ldi	r18, 0xE1	; 225
 270:	34 e0       	ldi	r19, 0x04	; 4
 272:	d1 50       	subi	r29, 0x01	; 1
 274:	20 40       	sbci	r18, 0x00	; 0
 276:	30 40       	sbci	r19, 0x00	; 0
 278:	e1 f7       	brne	.-8      	; 0x272 <turnOnAndOffAllByColumnSideways+0x96>
 27a:	00 c0       	rjmp	.+0      	; 0x27c <turnOnAndOffAllByColumnSideways+0xa0>
 27c:	00 00       	nop
 27e:	8e 16       	cp	r8, r30
 280:	9f 06       	cpc	r9, r31
 282:	79 f7       	brne	.-34     	; 0x262 <turnOnAndOffAllByColumnSideways+0x86>
 284:	e0 e1       	ldi	r30, 0x10	; 16
 286:	f1 e0       	ldi	r31, 0x01	; 1
 288:	c5 b0       	in	r12, 0x05	; 5
 28a:	d1 90       	ld	r13, Z+
 28c:	d0 94       	com	r13
 28e:	dc 20       	and	r13, r12
 290:	d5 b8       	out	0x05, r13	; 5
 292:	4f ef       	ldi	r20, 0xFF	; 255
 294:	c1 ee       	ldi	r28, 0xE1	; 225
 296:	d4 e0       	ldi	r29, 0x04	; 4
 298:	41 50       	subi	r20, 0x01	; 1
 29a:	c0 40       	sbci	r28, 0x00	; 0
 29c:	d0 40       	sbci	r29, 0x00	; 0
 29e:	e1 f7       	brne	.-8      	; 0x298 <turnOnAndOffAllByColumnSideways+0xbc>
 2a0:	00 c0       	rjmp	.+0      	; 0x2a2 <turnOnAndOffAllByColumnSideways+0xc6>
 2a2:	00 00       	nop
 2a4:	6e 16       	cp	r6, r30
 2a6:	7f 06       	cpc	r7, r31
 2a8:	79 f7       	brne	.-34     	; 0x288 <turnOnAndOffAllByColumnSideways+0xac>
 2aa:	2c 98       	cbi	0x05, 4	; 5
 2ac:	44 98       	cbi	0x08, 4	; 8
 2ae:	45 98       	cbi	0x08, 5	; 8
 2b0:	2f ef       	ldi	r18, 0xFF	; 255
 2b2:	31 ee       	ldi	r19, 0xE1	; 225
 2b4:	44 e0       	ldi	r20, 0x04	; 4
 2b6:	21 50       	subi	r18, 0x01	; 1
 2b8:	30 40       	sbci	r19, 0x00	; 0
 2ba:	40 40       	sbci	r20, 0x00	; 0
 2bc:	e1 f7       	brne	.-8      	; 0x2b6 <turnOnAndOffAllByColumnSideways+0xda>
 2be:	00 c0       	rjmp	.+0      	; 0x2c0 <turnOnAndOffAllByColumnSideways+0xe4>
 2c0:	00 00       	nop
 2c2:	2d 98       	cbi	0x05, 5	; 5
 2c4:	44 98       	cbi	0x08, 4	; 8
 2c6:	45 98       	cbi	0x08, 5	; 8
 2c8:	cf ef       	ldi	r28, 0xFF	; 255
 2ca:	d1 ee       	ldi	r29, 0xE1	; 225
 2cc:	24 e0       	ldi	r18, 0x04	; 4
 2ce:	c1 50       	subi	r28, 0x01	; 1
 2d0:	d0 40       	sbci	r29, 0x00	; 0
 2d2:	20 40       	sbci	r18, 0x00	; 0
 2d4:	e1 f7       	brne	.-8      	; 0x2ce <turnOnAndOffAllByColumnSideways+0xf2>
 2d6:	00 c0       	rjmp	.+0      	; 0x2d8 <turnOnAndOffAllByColumnSideways+0xfc>
 2d8:	00 00       	nop
 2da:	e8 e1       	ldi	r30, 0x18	; 24
 2dc:	f1 e0       	ldi	r31, 0x01	; 1
 2de:	6f 01       	movw	r12, r30
 2e0:	ab b0       	in	r10, 0x0b	; 11
 2e2:	e6 01       	movw	r28, r12
 2e4:	b9 90       	ld	r11, Y+
 2e6:	6e 01       	movw	r12, r28
 2e8:	ba 28       	or	r11, r10
 2ea:	bb b8       	out	0x0b, r11	; 11
 2ec:	df ef       	ldi	r29, 0xFF	; 255
 2ee:	21 ee       	ldi	r18, 0xE1	; 225
 2f0:	34 e0       	ldi	r19, 0x04	; 4
 2f2:	d1 50       	subi	r29, 0x01	; 1
 2f4:	20 40       	sbci	r18, 0x00	; 0
 2f6:	30 40       	sbci	r19, 0x00	; 0
 2f8:	e1 f7       	brne	.-8      	; 0x2f2 <turnOnAndOffAllByColumnSideways+0x116>
 2fa:	00 c0       	rjmp	.+0      	; 0x2fc <turnOnAndOffAllByColumnSideways+0x120>
 2fc:	00 00       	nop
 2fe:	6c 15       	cp	r22, r12
 300:	7d 05       	cpc	r23, r13
 302:	71 f7       	brne	.-36     	; 0x2e0 <turnOnAndOffAllByColumnSideways+0x104>
 304:	5c e1       	ldi	r21, 0x1C	; 28
 306:	c5 2e       	mov	r12, r21
 308:	51 e0       	ldi	r21, 0x01	; 1
 30a:	d5 2e       	mov	r13, r21
 30c:	ab b0       	in	r10, 0x0b	; 11
 30e:	e6 01       	movw	r28, r12
 310:	b9 90       	ld	r11, Y+
 312:	6e 01       	movw	r12, r28
 314:	ba 28       	or	r11, r10
 316:	bb b8       	out	0x0b, r11	; 11
 318:	df ef       	ldi	r29, 0xFF	; 255
 31a:	21 ee       	ldi	r18, 0xE1	; 225
 31c:	34 e0       	ldi	r19, 0x04	; 4
 31e:	d1 50       	subi	r29, 0x01	; 1
 320:	20 40       	sbci	r18, 0x00	; 0
 322:	30 40       	sbci	r19, 0x00	; 0
 324:	e1 f7       	brne	.-8      	; 0x31e <turnOnAndOffAllByColumnSideways+0x142>
 326:	00 c0       	rjmp	.+0      	; 0x328 <turnOnAndOffAllByColumnSideways+0x14c>
 328:	00 00       	nop
 32a:	4c 14       	cp	r4, r12
 32c:	5d 04       	cpc	r5, r13
 32e:	71 f7       	brne	.-36     	; 0x30c <turnOnAndOffAllByColumnSideways+0x130>
 330:	40 e2       	ldi	r20, 0x20	; 32
 332:	c4 2e       	mov	r12, r20
 334:	41 e0       	ldi	r20, 0x01	; 1
 336:	d4 2e       	mov	r13, r20
 338:	a5 b0       	in	r10, 0x05	; 5
 33a:	e6 01       	movw	r28, r12
 33c:	b9 90       	ld	r11, Y+
 33e:	6e 01       	movw	r12, r28
 340:	ba 28       	or	r11, r10
 342:	b5 b8       	out	0x05, r11	; 5
 344:	df ef       	ldi	r29, 0xFF	; 255
 346:	21 ee       	ldi	r18, 0xE1	; 225
 348:	34 e0       	ldi	r19, 0x04	; 4
 34a:	d1 50       	subi	r29, 0x01	; 1
 34c:	20 40       	sbci	r18, 0x00	; 0
 34e:	30 40       	sbci	r19, 0x00	; 0
 350:	e1 f7       	brne	.-8      	; 0x34a <turnOnAndOffAllByColumnSideways+0x16e>
 352:	00 c0       	rjmp	.+0      	; 0x354 <turnOnAndOffAllByColumnSideways+0x178>
 354:	00 00       	nop
 356:	0c 15       	cp	r16, r12
 358:	1d 05       	cpc	r17, r13
 35a:	71 f7       	brne	.-36     	; 0x338 <turnOnAndOffAllByColumnSideways+0x15c>
 35c:	2c 9a       	sbi	0x05, 4	; 5
 35e:	44 9a       	sbi	0x08, 4	; 8
 360:	45 9a       	sbi	0x08, 5	; 8
 362:	4f ef       	ldi	r20, 0xFF	; 255
 364:	c1 ee       	ldi	r28, 0xE1	; 225
 366:	d4 e0       	ldi	r29, 0x04	; 4
 368:	41 50       	subi	r20, 0x01	; 1
 36a:	c0 40       	sbci	r28, 0x00	; 0
 36c:	d0 40       	sbci	r29, 0x00	; 0
 36e:	e1 f7       	brne	.-8      	; 0x368 <turnOnAndOffAllByColumnSideways+0x18c>
 370:	00 c0       	rjmp	.+0      	; 0x372 <turnOnAndOffAllByColumnSideways+0x196>
 372:	00 00       	nop
 374:	2d 9a       	sbi	0x05, 5	; 5
 376:	44 9a       	sbi	0x08, 4	; 8
 378:	45 9a       	sbi	0x08, 5	; 8
 37a:	2f ef       	ldi	r18, 0xFF	; 255
 37c:	31 ee       	ldi	r19, 0xE1	; 225
 37e:	44 e0       	ldi	r20, 0x04	; 4
 380:	21 50       	subi	r18, 0x01	; 1
 382:	30 40       	sbci	r19, 0x00	; 0
 384:	40 40       	sbci	r20, 0x00	; 0
 386:	e1 f7       	brne	.-8      	; 0x380 <turnOnAndOffAllByColumnSideways+0x1a4>
 388:	00 c0       	rjmp	.+0      	; 0x38a <turnOnAndOffAllByColumnSideways+0x1ae>
 38a:	00 00       	nop
 38c:	2c 98       	cbi	0x05, 4	; 5
 38e:	44 98       	cbi	0x08, 4	; 8
 390:	45 98       	cbi	0x08, 5	; 8
 392:	cf ef       	ldi	r28, 0xFF	; 255
 394:	d1 ee       	ldi	r29, 0xE1	; 225
 396:	24 e0       	ldi	r18, 0x04	; 4
 398:	c1 50       	subi	r28, 0x01	; 1
 39a:	d0 40       	sbci	r29, 0x00	; 0
 39c:	20 40       	sbci	r18, 0x00	; 0
 39e:	e1 f7       	brne	.-8      	; 0x398 <turnOnAndOffAllByColumnSideways+0x1bc>
 3a0:	00 c0       	rjmp	.+0      	; 0x3a2 <turnOnAndOffAllByColumnSideways+0x1c6>
 3a2:	00 00       	nop
 3a4:	2d 98       	cbi	0x05, 5	; 5
 3a6:	44 98       	cbi	0x08, 4	; 8
 3a8:	45 98       	cbi	0x08, 5	; 8
 3aa:	3f ef       	ldi	r19, 0xFF	; 255
 3ac:	41 ee       	ldi	r20, 0xE1	; 225
 3ae:	c4 e0       	ldi	r28, 0x04	; 4
 3b0:	31 50       	subi	r19, 0x01	; 1
 3b2:	40 40       	sbci	r20, 0x00	; 0
 3b4:	c0 40       	sbci	r28, 0x00	; 0
 3b6:	e1 f7       	brne	.-8      	; 0x3b0 <turnOnAndOffAllByColumnSideways+0x1d4>
 3b8:	00 c0       	rjmp	.+0      	; 0x3ba <turnOnAndOffAllByColumnSideways+0x1de>
 3ba:	00 00       	nop
 3bc:	30 e1       	ldi	r19, 0x10	; 16
 3be:	c3 2e       	mov	r12, r19
 3c0:	31 e0       	ldi	r19, 0x01	; 1
 3c2:	d3 2e       	mov	r13, r19
 3c4:	a5 b0       	in	r10, 0x05	; 5
 3c6:	e6 01       	movw	r28, r12
 3c8:	b9 90       	ld	r11, Y+
 3ca:	6e 01       	movw	r12, r28
 3cc:	b0 94       	com	r11
 3ce:	ba 20       	and	r11, r10
 3d0:	b5 b8       	out	0x05, r11	; 5
 3d2:	df ef       	ldi	r29, 0xFF	; 255
 3d4:	21 ee       	ldi	r18, 0xE1	; 225
 3d6:	34 e0       	ldi	r19, 0x04	; 4
 3d8:	d1 50       	subi	r29, 0x01	; 1
 3da:	20 40       	sbci	r18, 0x00	; 0
 3dc:	30 40       	sbci	r19, 0x00	; 0
 3de:	e1 f7       	brne	.-8      	; 0x3d8 <turnOnAndOffAllByColumnSideways+0x1fc>
 3e0:	00 c0       	rjmp	.+0      	; 0x3e2 <turnOnAndOffAllByColumnSideways+0x206>
 3e2:	00 00       	nop
 3e4:	6c 14       	cp	r6, r12
 3e6:	7d 04       	cpc	r7, r13
 3e8:	69 f7       	brne	.-38     	; 0x3c4 <turnOnAndOffAllByColumnSideways+0x1e8>
 3ea:	2c e0       	ldi	r18, 0x0C	; 12
 3ec:	c2 2e       	mov	r12, r18
 3ee:	21 e0       	ldi	r18, 0x01	; 1
 3f0:	d2 2e       	mov	r13, r18
 3f2:	ab b0       	in	r10, 0x0b	; 11
 3f4:	e6 01       	movw	r28, r12
 3f6:	b9 90       	ld	r11, Y+
 3f8:	6e 01       	movw	r12, r28
 3fa:	b0 94       	com	r11
 3fc:	ba 20       	and	r11, r10
 3fe:	bb b8       	out	0x0b, r11	; 11
 400:	df ef       	ldi	r29, 0xFF	; 255
 402:	21 ee       	ldi	r18, 0xE1	; 225
 404:	34 e0       	ldi	r19, 0x04	; 4
 406:	d1 50       	subi	r29, 0x01	; 1
 408:	20 40       	sbci	r18, 0x00	; 0
 40a:	30 40       	sbci	r19, 0x00	; 0
 40c:	e1 f7       	brne	.-8      	; 0x406 <__LOCK_REGION_LENGTH__+0x6>
 40e:	00 c0       	rjmp	.+0      	; 0x410 <__LOCK_REGION_LENGTH__+0x10>
 410:	00 00       	nop
 412:	8c 14       	cp	r8, r12
 414:	9d 04       	cpc	r9, r13
 416:	69 f7       	brne	.-38     	; 0x3f2 <turnOnAndOffAllByColumnSideways+0x216>
 418:	cb b0       	in	r12, 0x0b	; 11
 41a:	dd 90       	ld	r13, X+
 41c:	d0 94       	com	r13
 41e:	dc 20       	and	r13, r12
 420:	db b8       	out	0x0b, r13	; 11
 422:	4f ef       	ldi	r20, 0xFF	; 255
 424:	c1 ee       	ldi	r28, 0xE1	; 225
 426:	d4 e0       	ldi	r29, 0x04	; 4
 428:	41 50       	subi	r20, 0x01	; 1
 42a:	c0 40       	sbci	r28, 0x00	; 0
 42c:	d0 40       	sbci	r29, 0x00	; 0
 42e:	e1 f7       	brne	.-8      	; 0x428 <__LOCK_REGION_LENGTH__+0x28>
 430:	00 c0       	rjmp	.+0      	; 0x432 <__LOCK_REGION_LENGTH__+0x32>
 432:	00 00       	nop
 434:	ea 16       	cp	r14, r26
 436:	fb 06       	cpc	r15, r27
 438:	79 f7       	brne	.-34     	; 0x418 <__LOCK_REGION_LENGTH__+0x18>
 43a:	2c 9a       	sbi	0x05, 4	; 5
 43c:	44 9a       	sbi	0x08, 4	; 8
 43e:	45 9a       	sbi	0x08, 5	; 8
 440:	2f ef       	ldi	r18, 0xFF	; 255
 442:	31 ee       	ldi	r19, 0xE1	; 225
 444:	44 e0       	ldi	r20, 0x04	; 4
 446:	21 50       	subi	r18, 0x01	; 1
 448:	30 40       	sbci	r19, 0x00	; 0
 44a:	40 40       	sbci	r20, 0x00	; 0
 44c:	e1 f7       	brne	.-8      	; 0x446 <__LOCK_REGION_LENGTH__+0x46>
 44e:	00 c0       	rjmp	.+0      	; 0x450 <__LOCK_REGION_LENGTH__+0x50>
 450:	00 00       	nop
 452:	2d 9a       	sbi	0x05, 5	; 5
 454:	44 9a       	sbi	0x08, 4	; 8
 456:	45 9a       	sbi	0x08, 5	; 8
 458:	cf ef       	ldi	r28, 0xFF	; 255
 45a:	d1 ee       	ldi	r29, 0xE1	; 225
 45c:	24 e0       	ldi	r18, 0x04	; 4
 45e:	c1 50       	subi	r28, 0x01	; 1
 460:	d0 40       	sbci	r29, 0x00	; 0
 462:	20 40       	sbci	r18, 0x00	; 0
 464:	e1 f7       	brne	.-8      	; 0x45e <__LOCK_REGION_LENGTH__+0x5e>
 466:	00 c0       	rjmp	.+0      	; 0x468 <__LOCK_REGION_LENGTH__+0x68>
 468:	00 00       	nop
 46a:	a0 e2       	ldi	r26, 0x20	; 32
 46c:	b1 e0       	ldi	r27, 0x01	; 1
 46e:	c5 b0       	in	r12, 0x05	; 5
 470:	dd 90       	ld	r13, X+
 472:	dc 28       	or	r13, r12
 474:	d5 b8       	out	0x05, r13	; 5
 476:	3f ef       	ldi	r19, 0xFF	; 255
 478:	41 ee       	ldi	r20, 0xE1	; 225
 47a:	c4 e0       	ldi	r28, 0x04	; 4
 47c:	31 50       	subi	r19, 0x01	; 1
 47e:	40 40       	sbci	r20, 0x00	; 0
 480:	c0 40       	sbci	r28, 0x00	; 0
 482:	e1 f7       	brne	.-8      	; 0x47c <__LOCK_REGION_LENGTH__+0x7c>
 484:	00 c0       	rjmp	.+0      	; 0x486 <__LOCK_REGION_LENGTH__+0x86>
 486:	00 00       	nop
 488:	0a 17       	cp	r16, r26
 48a:	1b 07       	cpc	r17, r27
 48c:	81 f7       	brne	.-32     	; 0x46e <__LOCK_REGION_LENGTH__+0x6e>
 48e:	ac e1       	ldi	r26, 0x1C	; 28
 490:	b1 e0       	ldi	r27, 0x01	; 1
 492:	cb b0       	in	r12, 0x0b	; 11
 494:	dd 90       	ld	r13, X+
 496:	dc 28       	or	r13, r12
 498:	db b8       	out	0x0b, r13	; 11
 49a:	df ef       	ldi	r29, 0xFF	; 255
 49c:	21 ee       	ldi	r18, 0xE1	; 225
 49e:	34 e0       	ldi	r19, 0x04	; 4
 4a0:	d1 50       	subi	r29, 0x01	; 1
 4a2:	20 40       	sbci	r18, 0x00	; 0
 4a4:	30 40       	sbci	r19, 0x00	; 0
 4a6:	e1 f7       	brne	.-8      	; 0x4a0 <__LOCK_REGION_LENGTH__+0xa0>
 4a8:	00 c0       	rjmp	.+0      	; 0x4aa <__LOCK_REGION_LENGTH__+0xaa>
 4aa:	00 00       	nop
 4ac:	4a 16       	cp	r4, r26
 4ae:	5b 06       	cpc	r5, r27
 4b0:	81 f7       	brne	.-32     	; 0x492 <__LOCK_REGION_LENGTH__+0x92>
 4b2:	bb b1       	in	r27, 0x0b	; 11
 4b4:	a1 91       	ld	r26, Z+
 4b6:	ab 2b       	or	r26, r27
 4b8:	ab b9       	out	0x0b, r26	; 11
 4ba:	4f ef       	ldi	r20, 0xFF	; 255
 4bc:	c1 ee       	ldi	r28, 0xE1	; 225
 4be:	d4 e0       	ldi	r29, 0x04	; 4
 4c0:	41 50       	subi	r20, 0x01	; 1
 4c2:	c0 40       	sbci	r28, 0x00	; 0
 4c4:	d0 40       	sbci	r29, 0x00	; 0
 4c6:	e1 f7       	brne	.-8      	; 0x4c0 <__LOCK_REGION_LENGTH__+0xc0>
 4c8:	00 c0       	rjmp	.+0      	; 0x4ca <__LOCK_REGION_LENGTH__+0xca>
 4ca:	00 00       	nop
 4cc:	6e 17       	cp	r22, r30
 4ce:	7f 07       	cpc	r23, r31
 4d0:	81 f7       	brne	.-32     	; 0x4b2 <__LOCK_REGION_LENGTH__+0xb2>
 4d2:	01 97       	sbiw	r24, 0x01	; 1
 4d4:	09 f0       	breq	.+2      	; 0x4d8 <__LOCK_REGION_LENGTH__+0xd8>
 4d6:	ae ce       	rjmp	.-676    	; 0x234 <turnOnAndOffAllByColumnSideways+0x58>
 4d8:	df 91       	pop	r29
 4da:	cf 91       	pop	r28
 4dc:	1f 91       	pop	r17
 4de:	0f 91       	pop	r16
 4e0:	ff 90       	pop	r15
 4e2:	ef 90       	pop	r14
 4e4:	df 90       	pop	r13
 4e6:	cf 90       	pop	r12
 4e8:	bf 90       	pop	r11
 4ea:	af 90       	pop	r10
 4ec:	9f 90       	pop	r9
 4ee:	8f 90       	pop	r8
 4f0:	7f 90       	pop	r7
 4f2:	6f 90       	pop	r6
 4f4:	5f 90       	pop	r5
 4f6:	4f 90       	pop	r4
 4f8:	08 95       	ret

000004fa <layerstompUpAndDown>:
 4fa:	1f 93       	push	r17
 4fc:	cf 93       	push	r28
 4fe:	df 93       	push	r29
 500:	60 e0       	ldi	r22, 0x00	; 0
 502:	71 e0       	ldi	r23, 0x01	; 1
 504:	24 e0       	ldi	r18, 0x04	; 4
 506:	31 e0       	ldi	r19, 0x01	; 1
 508:	fb 01       	movw	r30, r22
 50a:	98 b1       	in	r25, 0x08	; 8
 50c:	81 91       	ld	r24, Z+
 50e:	80 95       	com	r24
 510:	89 23       	and	r24, r25
 512:	88 b9       	out	0x08, r24	; 8
 514:	2e 17       	cp	r18, r30
 516:	3f 07       	cpc	r19, r31
 518:	c1 f7       	brne	.-16     	; 0x50a <layerstompUpAndDown+0x10>
 51a:	85 e0       	ldi	r24, 0x05	; 5
 51c:	90 e0       	ldi	r25, 0x00	; 0
 51e:	48 e0       	ldi	r20, 0x08	; 8
 520:	51 e0       	ldi	r21, 0x01	; 1
 522:	e4 e0       	ldi	r30, 0x04	; 4
 524:	f1 e0       	ldi	r31, 0x01	; 1
 526:	c0 e0       	ldi	r28, 0x00	; 0
 528:	d1 e0       	ldi	r29, 0x01	; 1
 52a:	df 01       	movw	r26, r30
 52c:	38 b1       	in	r19, 0x08	; 8
 52e:	2d 91       	ld	r18, X+
 530:	23 2b       	or	r18, r19
 532:	28 b9       	out	0x08, r18	; 8
 534:	3f ef       	ldi	r19, 0xFF	; 255
 536:	11 ee       	ldi	r17, 0xE1	; 225
 538:	24 e0       	ldi	r18, 0x04	; 4
 53a:	31 50       	subi	r19, 0x01	; 1
 53c:	10 40       	sbci	r17, 0x00	; 0
 53e:	20 40       	sbci	r18, 0x00	; 0
 540:	e1 f7       	brne	.-8      	; 0x53a <layerstompUpAndDown+0x40>
 542:	00 c0       	rjmp	.+0      	; 0x544 <layerstompUpAndDown+0x4a>
 544:	00 00       	nop
 546:	38 b1       	in	r19, 0x08	; 8
 548:	29 91       	ld	r18, Y+
 54a:	20 95       	com	r18
 54c:	23 23       	and	r18, r19
 54e:	28 b9       	out	0x08, r18	; 8
 550:	4a 17       	cp	r20, r26
 552:	5b 07       	cpc	r21, r27
 554:	59 f7       	brne	.-42     	; 0x52c <layerstompUpAndDown+0x32>
 556:	c4 e0       	ldi	r28, 0x04	; 4
 558:	d1 e0       	ldi	r29, 0x01	; 1
 55a:	a8 e0       	ldi	r26, 0x08	; 8
 55c:	b1 e0       	ldi	r27, 0x01	; 1
 55e:	38 b1       	in	r19, 0x08	; 8
 560:	2e 91       	ld	r18, -X
 562:	23 2b       	or	r18, r19
 564:	28 b9       	out	0x08, r18	; 8
 566:	3f ef       	ldi	r19, 0xFF	; 255
 568:	11 ee       	ldi	r17, 0xE1	; 225
 56a:	24 e0       	ldi	r18, 0x04	; 4
 56c:	31 50       	subi	r19, 0x01	; 1
 56e:	10 40       	sbci	r17, 0x00	; 0
 570:	20 40       	sbci	r18, 0x00	; 0
 572:	e1 f7       	brne	.-8      	; 0x56c <layerstompUpAndDown+0x72>
 574:	00 c0       	rjmp	.+0      	; 0x576 <layerstompUpAndDown+0x7c>
 576:	00 00       	nop
 578:	38 b1       	in	r19, 0x08	; 8
 57a:	2a 91       	ld	r18, -Y
 57c:	20 95       	com	r18
 57e:	23 23       	and	r18, r19
 580:	28 b9       	out	0x08, r18	; 8
 582:	ea 17       	cp	r30, r26
 584:	fb 07       	cpc	r31, r27
 586:	59 f7       	brne	.-42     	; 0x55e <layerstompUpAndDown+0x64>
 588:	38 b1       	in	r19, 0x08	; 8
 58a:	21 91       	ld	r18, Z+
 58c:	23 2b       	or	r18, r19
 58e:	28 b9       	out	0x08, r18	; 8
 590:	1f ef       	ldi	r17, 0xFF	; 255
 592:	21 ee       	ldi	r18, 0xE1	; 225
 594:	34 e0       	ldi	r19, 0x04	; 4
 596:	11 50       	subi	r17, 0x01	; 1
 598:	20 40       	sbci	r18, 0x00	; 0
 59a:	30 40       	sbci	r19, 0x00	; 0
 59c:	e1 f7       	brne	.-8      	; 0x596 <layerstompUpAndDown+0x9c>
 59e:	00 c0       	rjmp	.+0      	; 0x5a0 <layerstompUpAndDown+0xa6>
 5a0:	00 00       	nop
 5a2:	4e 17       	cp	r20, r30
 5a4:	5f 07       	cpc	r21, r31
 5a6:	81 f7       	brne	.-32     	; 0x588 <layerstompUpAndDown+0x8e>
 5a8:	e4 e0       	ldi	r30, 0x04	; 4
 5aa:	f1 e0       	ldi	r31, 0x01	; 1
 5ac:	38 b1       	in	r19, 0x08	; 8
 5ae:	22 91       	ld	r18, -Z
 5b0:	20 95       	com	r18
 5b2:	23 23       	and	r18, r19
 5b4:	28 b9       	out	0x08, r18	; 8
 5b6:	af ef       	ldi	r26, 0xFF	; 255
 5b8:	11 ee       	ldi	r17, 0xE1	; 225
 5ba:	24 e0       	ldi	r18, 0x04	; 4
 5bc:	a1 50       	subi	r26, 0x01	; 1
 5be:	10 40       	sbci	r17, 0x00	; 0
 5c0:	20 40       	sbci	r18, 0x00	; 0
 5c2:	e1 f7       	brne	.-8      	; 0x5bc <layerstompUpAndDown+0xc2>
 5c4:	00 c0       	rjmp	.+0      	; 0x5c6 <layerstompUpAndDown+0xcc>
 5c6:	00 00       	nop
 5c8:	6e 17       	cp	r22, r30
 5ca:	7f 07       	cpc	r23, r31
 5cc:	79 f7       	brne	.-34     	; 0x5ac <layerstompUpAndDown+0xb2>
 5ce:	01 97       	sbiw	r24, 0x01	; 1
 5d0:	09 f0       	breq	.+2      	; 0x5d4 <layerstompUpAndDown+0xda>
 5d2:	a7 cf       	rjmp	.-178    	; 0x522 <layerstompUpAndDown+0x28>
 5d4:	df 91       	pop	r29
 5d6:	cf 91       	pop	r28
 5d8:	1f 91       	pop	r17
 5da:	08 95       	ret

000005dc <flickerOff>:
 5dc:	cf 93       	push	r28
 5de:	df 93       	push	r29
 5e0:	0e 94 51 00 	call	0xa2	; 0xa2 <turnEverythingOn>
 5e4:	ce e1       	ldi	r28, 0x1E	; 30
 5e6:	d0 e0       	ldi	r29, 0x00	; 0
 5e8:	0e 94 4b 00 	call	0x96	; 0x96 <turnEverythingOff>
 5ec:	2f ef       	ldi	r18, 0xFF	; 255
 5ee:	81 ee       	ldi	r24, 0xE1	; 225
 5f0:	94 e0       	ldi	r25, 0x04	; 4
 5f2:	21 50       	subi	r18, 0x01	; 1
 5f4:	80 40       	sbci	r24, 0x00	; 0
 5f6:	90 40       	sbci	r25, 0x00	; 0
 5f8:	e1 f7       	brne	.-8      	; 0x5f2 <flickerOff+0x16>
 5fa:	00 c0       	rjmp	.+0      	; 0x5fc <flickerOff+0x20>
 5fc:	00 00       	nop
 5fe:	0e 94 51 00 	call	0xa2	; 0xa2 <turnEverythingOn>
 602:	2f e7       	ldi	r18, 0x7F	; 127
 604:	89 ea       	ldi	r24, 0xA9	; 169
 606:	93 e0       	ldi	r25, 0x03	; 3
 608:	21 50       	subi	r18, 0x01	; 1
 60a:	80 40       	sbci	r24, 0x00	; 0
 60c:	90 40       	sbci	r25, 0x00	; 0
 60e:	e1 f7       	brne	.-8      	; 0x608 <flickerOff+0x2c>
 610:	00 c0       	rjmp	.+0      	; 0x612 <flickerOff+0x36>
 612:	00 00       	nop
 614:	21 97       	sbiw	r28, 0x01	; 1
 616:	41 f7       	brne	.-48     	; 0x5e8 <flickerOff+0xc>
 618:	df 91       	pop	r29
 61a:	cf 91       	pop	r28
 61c:	08 95       	ret

0000061e <aroundEdgeDown>:
 61e:	cf 93       	push	r28
 620:	df 93       	push	r29
 622:	c4 e0       	ldi	r28, 0x04	; 4
 624:	d0 e0       	ldi	r29, 0x00	; 0
 626:	0e 94 4b 00 	call	0x96	; 0x96 <turnEverythingOff>
 62a:	e8 e0       	ldi	r30, 0x08	; 8
 62c:	f1 e0       	ldi	r31, 0x01	; 1
 62e:	98 b1       	in	r25, 0x08	; 8
 630:	82 91       	ld	r24, -Z
 632:	89 2b       	or	r24, r25
 634:	88 b9       	out	0x08, r24	; 8
 636:	5d 98       	cbi	0x0b, 5	; 11
 638:	5e 98       	cbi	0x0b, 6	; 11
 63a:	29 98       	cbi	0x05, 1	; 5
 63c:	2a 98       	cbi	0x05, 2	; 5
 63e:	58 98       	cbi	0x0b, 0	; 11
 640:	2f e7       	ldi	r18, 0x7F	; 127
 642:	8b e8       	ldi	r24, 0x8B	; 139
 644:	98 e0       	ldi	r25, 0x08	; 8
 646:	21 50       	subi	r18, 0x01	; 1
 648:	80 40       	sbci	r24, 0x00	; 0
 64a:	90 40       	sbci	r25, 0x00	; 0
 64c:	e1 f7       	brne	.-8      	; 0x646 <aroundEdgeDown+0x28>
 64e:	00 c0       	rjmp	.+0      	; 0x650 <aroundEdgeDown+0x32>
 650:	00 00       	nop
 652:	58 9a       	sbi	0x0b, 0	; 11
 654:	5c 98       	cbi	0x0b, 4	; 11
 656:	2f e7       	ldi	r18, 0x7F	; 127
 658:	8b e8       	ldi	r24, 0x8B	; 139
 65a:	98 e0       	ldi	r25, 0x08	; 8
 65c:	21 50       	subi	r18, 0x01	; 1
 65e:	80 40       	sbci	r24, 0x00	; 0
 660:	90 40       	sbci	r25, 0x00	; 0
 662:	e1 f7       	brne	.-8      	; 0x65c <aroundEdgeDown+0x3e>
 664:	00 c0       	rjmp	.+0      	; 0x666 <aroundEdgeDown+0x48>
 666:	00 00       	nop
 668:	5c 9a       	sbi	0x0b, 4	; 11
 66a:	28 98       	cbi	0x05, 0	; 5
 66c:	2f e7       	ldi	r18, 0x7F	; 127
 66e:	8b e8       	ldi	r24, 0x8B	; 139
 670:	98 e0       	ldi	r25, 0x08	; 8
 672:	21 50       	subi	r18, 0x01	; 1
 674:	80 40       	sbci	r24, 0x00	; 0
 676:	90 40       	sbci	r25, 0x00	; 0
 678:	e1 f7       	brne	.-8      	; 0x672 <aroundEdgeDown+0x54>
 67a:	00 c0       	rjmp	.+0      	; 0x67c <aroundEdgeDown+0x5e>
 67c:	00 00       	nop
 67e:	28 9a       	sbi	0x05, 0	; 5
 680:	2c 98       	cbi	0x05, 4	; 5
 682:	2f e7       	ldi	r18, 0x7F	; 127
 684:	8b e8       	ldi	r24, 0x8B	; 139
 686:	98 e0       	ldi	r25, 0x08	; 8
 688:	21 50       	subi	r18, 0x01	; 1
 68a:	80 40       	sbci	r24, 0x00	; 0
 68c:	90 40       	sbci	r25, 0x00	; 0
 68e:	e1 f7       	brne	.-8      	; 0x688 <aroundEdgeDown+0x6a>
 690:	00 c0       	rjmp	.+0      	; 0x692 <aroundEdgeDown+0x74>
 692:	00 00       	nop
 694:	2c 9a       	sbi	0x05, 4	; 5
 696:	45 98       	cbi	0x08, 5	; 8
 698:	2f e7       	ldi	r18, 0x7F	; 127
 69a:	8b e8       	ldi	r24, 0x8B	; 139
 69c:	98 e0       	ldi	r25, 0x08	; 8
 69e:	21 50       	subi	r18, 0x01	; 1
 6a0:	80 40       	sbci	r24, 0x00	; 0
 6a2:	90 40       	sbci	r25, 0x00	; 0
 6a4:	e1 f7       	brne	.-8      	; 0x69e <aroundEdgeDown+0x80>
 6a6:	00 c0       	rjmp	.+0      	; 0x6a8 <aroundEdgeDown+0x8a>
 6a8:	00 00       	nop
 6aa:	45 9a       	sbi	0x08, 5	; 8
 6ac:	45 98       	cbi	0x08, 5	; 8
 6ae:	2f e7       	ldi	r18, 0x7F	; 127
 6b0:	8b e8       	ldi	r24, 0x8B	; 139
 6b2:	98 e0       	ldi	r25, 0x08	; 8
 6b4:	21 50       	subi	r18, 0x01	; 1
 6b6:	80 40       	sbci	r24, 0x00	; 0
 6b8:	90 40       	sbci	r25, 0x00	; 0
 6ba:	e1 f7       	brne	.-8      	; 0x6b4 <aroundEdgeDown+0x96>
 6bc:	00 c0       	rjmp	.+0      	; 0x6be <aroundEdgeDown+0xa0>
 6be:	00 00       	nop
 6c0:	44 9a       	sbi	0x08, 4	; 8
 6c2:	45 98       	cbi	0x08, 5	; 8
 6c4:	2f e7       	ldi	r18, 0x7F	; 127
 6c6:	8b e8       	ldi	r24, 0x8B	; 139
 6c8:	98 e0       	ldi	r25, 0x08	; 8
 6ca:	21 50       	subi	r18, 0x01	; 1
 6cc:	80 40       	sbci	r24, 0x00	; 0
 6ce:	90 40       	sbci	r25, 0x00	; 0
 6d0:	e1 f7       	brne	.-8      	; 0x6ca <aroundEdgeDown+0xac>
 6d2:	00 c0       	rjmp	.+0      	; 0x6d4 <aroundEdgeDown+0xb6>
 6d4:	00 00       	nop
 6d6:	44 9a       	sbi	0x08, 4	; 8
 6d8:	2b 98       	cbi	0x05, 3	; 5
 6da:	2f e7       	ldi	r18, 0x7F	; 127
 6dc:	8b e8       	ldi	r24, 0x8B	; 139
 6de:	98 e0       	ldi	r25, 0x08	; 8
 6e0:	21 50       	subi	r18, 0x01	; 1
 6e2:	80 40       	sbci	r24, 0x00	; 0
 6e4:	90 40       	sbci	r25, 0x00	; 0
 6e6:	e1 f7       	brne	.-8      	; 0x6e0 <aroundEdgeDown+0xc2>
 6e8:	00 c0       	rjmp	.+0      	; 0x6ea <aroundEdgeDown+0xcc>
 6ea:	00 00       	nop
 6ec:	2b 9a       	sbi	0x05, 3	; 5
 6ee:	2f 98       	cbi	0x05, 7	; 5
 6f0:	2f e7       	ldi	r18, 0x7F	; 127
 6f2:	8b e8       	ldi	r24, 0x8B	; 139
 6f4:	98 e0       	ldi	r25, 0x08	; 8
 6f6:	21 50       	subi	r18, 0x01	; 1
 6f8:	80 40       	sbci	r24, 0x00	; 0
 6fa:	90 40       	sbci	r25, 0x00	; 0
 6fc:	e1 f7       	brne	.-8      	; 0x6f6 <aroundEdgeDown+0xd8>
 6fe:	00 c0       	rjmp	.+0      	; 0x700 <aroundEdgeDown+0xe2>
 700:	00 00       	nop
 702:	2f 9a       	sbi	0x05, 7	; 5
 704:	5b 98       	cbi	0x0b, 3	; 11
 706:	2f e7       	ldi	r18, 0x7F	; 127
 708:	8b e8       	ldi	r24, 0x8B	; 139
 70a:	98 e0       	ldi	r25, 0x08	; 8
 70c:	21 50       	subi	r18, 0x01	; 1
 70e:	80 40       	sbci	r24, 0x00	; 0
 710:	90 40       	sbci	r25, 0x00	; 0
 712:	e1 f7       	brne	.-8      	; 0x70c <aroundEdgeDown+0xee>
 714:	00 c0       	rjmp	.+0      	; 0x716 <aroundEdgeDown+0xf8>
 716:	00 00       	nop
 718:	5b 9a       	sbi	0x0b, 3	; 11
 71a:	5a 98       	cbi	0x0b, 2	; 11
 71c:	2f e7       	ldi	r18, 0x7F	; 127
 71e:	8b e8       	ldi	r24, 0x8B	; 139
 720:	98 e0       	ldi	r25, 0x08	; 8
 722:	21 50       	subi	r18, 0x01	; 1
 724:	80 40       	sbci	r24, 0x00	; 0
 726:	90 40       	sbci	r25, 0x00	; 0
 728:	e1 f7       	brne	.-8      	; 0x722 <aroundEdgeDown+0x104>
 72a:	00 c0       	rjmp	.+0      	; 0x72c <aroundEdgeDown+0x10e>
 72c:	00 00       	nop
 72e:	5a 9a       	sbi	0x0b, 2	; 11
 730:	59 98       	cbi	0x0b, 1	; 11
 732:	2f e7       	ldi	r18, 0x7F	; 127
 734:	8b e8       	ldi	r24, 0x8B	; 139
 736:	98 e0       	ldi	r25, 0x08	; 8
 738:	21 50       	subi	r18, 0x01	; 1
 73a:	80 40       	sbci	r24, 0x00	; 0
 73c:	90 40       	sbci	r25, 0x00	; 0
 73e:	e1 f7       	brne	.-8      	; 0x738 <aroundEdgeDown+0x11a>
 740:	00 c0       	rjmp	.+0      	; 0x742 <aroundEdgeDown+0x124>
 742:	00 00       	nop
 744:	59 9a       	sbi	0x0b, 1	; 11
 746:	21 e0       	ldi	r18, 0x01	; 1
 748:	e4 30       	cpi	r30, 0x04	; 4
 74a:	f2 07       	cpc	r31, r18
 74c:	09 f0       	breq	.+2      	; 0x750 <aroundEdgeDown+0x132>
 74e:	6f cf       	rjmp	.-290    	; 0x62e <aroundEdgeDown+0x10>
 750:	21 97       	sbiw	r28, 0x01	; 1
 752:	09 f0       	breq	.+2      	; 0x756 <aroundEdgeDown+0x138>
 754:	68 cf       	rjmp	.-304    	; 0x626 <aroundEdgeDown+0x8>
 756:	df 91       	pop	r29
 758:	cf 91       	pop	r28
 75a:	08 95       	ret

0000075c <diagonalRectangle>:
 75c:	6f 92       	push	r6
 75e:	7f 92       	push	r7
 760:	8f 92       	push	r8
 762:	9f 92       	push	r9
 764:	af 92       	push	r10
 766:	bf 92       	push	r11
 768:	cf 92       	push	r12
 76a:	df 92       	push	r13
 76c:	ef 92       	push	r14
 76e:	ff 92       	push	r15
 770:	0f 93       	push	r16
 772:	1f 93       	push	r17
 774:	cf 93       	push	r28
 776:	df 93       	push	r29
 778:	0e 94 4b 00 	call	0x96	; 0x96 <turnEverythingOff>
 77c:	35 e0       	ldi	r19, 0x05	; 5
 77e:	c3 2e       	mov	r12, r19
 780:	d1 2c       	mov	r13, r1
 782:	c0 e1       	ldi	r28, 0x10	; 16
 784:	d1 e0       	ldi	r29, 0x01	; 1
 786:	04 e1       	ldi	r16, 0x14	; 20
 788:	11 e0       	ldi	r17, 0x01	; 1
 78a:	46 e1       	ldi	r20, 0x16	; 22
 78c:	84 2e       	mov	r8, r20
 78e:	41 e0       	ldi	r20, 0x01	; 1
 790:	94 2e       	mov	r9, r20
 792:	88 e0       	ldi	r24, 0x08	; 8
 794:	e8 2e       	mov	r14, r24
 796:	81 e0       	ldi	r24, 0x01	; 1
 798:	f8 2e       	mov	r15, r24
 79a:	90 e1       	ldi	r25, 0x10	; 16
 79c:	69 2e       	mov	r6, r25
 79e:	91 e0       	ldi	r25, 0x01	; 1
 7a0:	79 2e       	mov	r7, r25
 7a2:	f7 01       	movw	r30, r14
 7a4:	9b b1       	in	r25, 0x0b	; 11
 7a6:	81 91       	ld	r24, Z+
 7a8:	80 95       	com	r24
 7aa:	89 23       	and	r24, r25
 7ac:	8b b9       	out	0x0b, r24	; 11
 7ae:	ce 17       	cp	r28, r30
 7b0:	df 07       	cpc	r29, r31
 7b2:	c1 f7       	brne	.-16     	; 0x7a4 <diagonalRectangle+0x48>
 7b4:	43 9a       	sbi	0x08, 3	; 8
 7b6:	41 9a       	sbi	0x08, 1	; 8
 7b8:	2f ef       	ldi	r18, 0xFF	; 255
 7ba:	86 e1       	ldi	r24, 0x16	; 22
 7bc:	91 e1       	ldi	r25, 0x11	; 17
 7be:	21 50       	subi	r18, 0x01	; 1
 7c0:	80 40       	sbci	r24, 0x00	; 0
 7c2:	90 40       	sbci	r25, 0x00	; 0
 7c4:	e1 f7       	brne	.-8      	; 0x7be <diagonalRectangle+0x62>
 7c6:	00 c0       	rjmp	.+0      	; 0x7c8 <diagonalRectangle+0x6c>
 7c8:	00 00       	nop
 7ca:	0e 94 4b 00 	call	0x96	; 0x96 <turnEverythingOff>
 7ce:	2c e0       	ldi	r18, 0x0C	; 12
 7d0:	a2 2e       	mov	r10, r18
 7d2:	21 e0       	ldi	r18, 0x01	; 1
 7d4:	b2 2e       	mov	r11, r18
 7d6:	f5 01       	movw	r30, r10
 7d8:	9b b1       	in	r25, 0x0b	; 11
 7da:	81 91       	ld	r24, Z+
 7dc:	80 95       	com	r24
 7de:	89 23       	and	r24, r25
 7e0:	8b b9       	out	0x0b, r24	; 11
 7e2:	ce 17       	cp	r28, r30
 7e4:	df 07       	cpc	r29, r31
 7e6:	c1 f7       	brne	.-16     	; 0x7d8 <diagonalRectangle+0x7c>
 7e8:	e0 e1       	ldi	r30, 0x10	; 16
 7ea:	f1 e0       	ldi	r31, 0x01	; 1
 7ec:	95 b1       	in	r25, 0x05	; 5
 7ee:	81 91       	ld	r24, Z+
 7f0:	80 95       	com	r24
 7f2:	89 23       	and	r24, r25
 7f4:	85 b9       	out	0x05, r24	; 5
 7f6:	0e 17       	cp	r16, r30
 7f8:	1f 07       	cpc	r17, r31
 7fa:	c1 f7       	brne	.-16     	; 0x7ec <diagonalRectangle+0x90>
 7fc:	41 9a       	sbi	0x08, 1	; 8
 7fe:	42 9a       	sbi	0x08, 2	; 8
 800:	ef ef       	ldi	r30, 0xFF	; 255
 802:	f6 e1       	ldi	r31, 0x16	; 22
 804:	21 e1       	ldi	r18, 0x11	; 17
 806:	e1 50       	subi	r30, 0x01	; 1
 808:	f0 40       	sbci	r31, 0x00	; 0
 80a:	20 40       	sbci	r18, 0x00	; 0
 80c:	e1 f7       	brne	.-8      	; 0x806 <diagonalRectangle+0xaa>
 80e:	00 c0       	rjmp	.+0      	; 0x810 <diagonalRectangle+0xb4>
 810:	00 00       	nop
 812:	0e 94 4b 00 	call	0x96	; 0x96 <turnEverythingOff>
 816:	e0 e1       	ldi	r30, 0x10	; 16
 818:	f1 e0       	ldi	r31, 0x01	; 1
 81a:	95 b1       	in	r25, 0x05	; 5
 81c:	81 91       	ld	r24, Z+
 81e:	80 95       	com	r24
 820:	89 23       	and	r24, r25
 822:	85 b9       	out	0x05, r24	; 5
 824:	8e 16       	cp	r8, r30
 826:	9f 06       	cpc	r9, r31
 828:	c1 f7       	brne	.-16     	; 0x81a <diagonalRectangle+0xbe>
 82a:	44 98       	cbi	0x08, 4	; 8
 82c:	45 98       	cbi	0x08, 5	; 8
 82e:	40 9a       	sbi	0x08, 0	; 8
 830:	41 9a       	sbi	0x08, 1	; 8
 832:	8f ef       	ldi	r24, 0xFF	; 255
 834:	96 e1       	ldi	r25, 0x16	; 22
 836:	e1 e1       	ldi	r30, 0x11	; 17
 838:	81 50       	subi	r24, 0x01	; 1
 83a:	90 40       	sbci	r25, 0x00	; 0
 83c:	e0 40       	sbci	r30, 0x00	; 0
 83e:	e1 f7       	brne	.-8      	; 0x838 <diagonalRectangle+0xdc>
 840:	00 c0       	rjmp	.+0      	; 0x842 <diagonalRectangle+0xe6>
 842:	00 00       	nop
 844:	0e 94 4b 00 	call	0x96	; 0x96 <turnEverythingOff>
 848:	ec e0       	ldi	r30, 0x0C	; 12
 84a:	f1 e0       	ldi	r31, 0x01	; 1
 84c:	9b b1       	in	r25, 0x0b	; 11
 84e:	81 91       	ld	r24, Z+
 850:	80 95       	com	r24
 852:	89 23       	and	r24, r25
 854:	8b b9       	out	0x0b, r24	; 11
 856:	ce 17       	cp	r28, r30
 858:	df 07       	cpc	r29, r31
 85a:	c1 f7       	brne	.-16     	; 0x84c <diagonalRectangle+0xf0>
 85c:	e0 e1       	ldi	r30, 0x10	; 16
 85e:	f1 e0       	ldi	r31, 0x01	; 1
 860:	95 b1       	in	r25, 0x05	; 5
 862:	81 91       	ld	r24, Z+
 864:	80 95       	com	r24
 866:	89 23       	and	r24, r25
 868:	85 b9       	out	0x05, r24	; 5
 86a:	0e 17       	cp	r16, r30
 86c:	1f 07       	cpc	r17, r31
 86e:	c1 f7       	brne	.-16     	; 0x860 <diagonalRectangle+0x104>
 870:	40 9a       	sbi	0x08, 0	; 8
 872:	41 9a       	sbi	0x08, 1	; 8
 874:	ff ef       	ldi	r31, 0xFF	; 255
 876:	26 e1       	ldi	r18, 0x16	; 22
 878:	81 e1       	ldi	r24, 0x11	; 17
 87a:	f1 50       	subi	r31, 0x01	; 1
 87c:	20 40       	sbci	r18, 0x00	; 0
 87e:	80 40       	sbci	r24, 0x00	; 0
 880:	e1 f7       	brne	.-8      	; 0x87a <diagonalRectangle+0x11e>
 882:	00 c0       	rjmp	.+0      	; 0x884 <diagonalRectangle+0x128>
 884:	00 00       	nop
 886:	0e 94 4b 00 	call	0x96	; 0x96 <turnEverythingOff>
 88a:	e8 e0       	ldi	r30, 0x08	; 8
 88c:	f1 e0       	ldi	r31, 0x01	; 1
 88e:	9b b1       	in	r25, 0x0b	; 11
 890:	81 91       	ld	r24, Z+
 892:	80 95       	com	r24
 894:	89 23       	and	r24, r25
 896:	8b b9       	out	0x0b, r24	; 11
 898:	ce 17       	cp	r28, r30
 89a:	df 07       	cpc	r29, r31
 89c:	c1 f7       	brne	.-16     	; 0x88e <diagonalRectangle+0x132>
 89e:	40 9a       	sbi	0x08, 0	; 8
 8a0:	41 9a       	sbi	0x08, 1	; 8
 8a2:	9f ef       	ldi	r25, 0xFF	; 255
 8a4:	e6 e1       	ldi	r30, 0x16	; 22
 8a6:	f1 e1       	ldi	r31, 0x11	; 17
 8a8:	91 50       	subi	r25, 0x01	; 1
 8aa:	e0 40       	sbci	r30, 0x00	; 0
 8ac:	f0 40       	sbci	r31, 0x00	; 0
 8ae:	e1 f7       	brne	.-8      	; 0x8a8 <diagonalRectangle+0x14c>
 8b0:	00 c0       	rjmp	.+0      	; 0x8b2 <diagonalRectangle+0x156>
 8b2:	00 00       	nop
 8b4:	0e 94 4b 00 	call	0x96	; 0x96 <turnEverythingOff>
 8b8:	ec e0       	ldi	r30, 0x0C	; 12
 8ba:	f1 e0       	ldi	r31, 0x01	; 1
 8bc:	9b b1       	in	r25, 0x0b	; 11
 8be:	81 91       	ld	r24, Z+
 8c0:	80 95       	com	r24
 8c2:	89 23       	and	r24, r25
 8c4:	8b b9       	out	0x0b, r24	; 11
 8c6:	ce 17       	cp	r28, r30
 8c8:	df 07       	cpc	r29, r31
 8ca:	c1 f7       	brne	.-16     	; 0x8bc <diagonalRectangle+0x160>
 8cc:	e0 e1       	ldi	r30, 0x10	; 16
 8ce:	f1 e0       	ldi	r31, 0x01	; 1
 8d0:	95 b1       	in	r25, 0x05	; 5
 8d2:	81 91       	ld	r24, Z+
 8d4:	80 95       	com	r24
 8d6:	89 23       	and	r24, r25
 8d8:	85 b9       	out	0x05, r24	; 5
 8da:	0e 17       	cp	r16, r30
 8dc:	1f 07       	cpc	r17, r31
 8de:	c1 f7       	brne	.-16     	; 0x8d0 <diagonalRectangle+0x174>
 8e0:	41 9a       	sbi	0x08, 1	; 8
 8e2:	42 9a       	sbi	0x08, 2	; 8
 8e4:	2f ef       	ldi	r18, 0xFF	; 255
 8e6:	86 e1       	ldi	r24, 0x16	; 22
 8e8:	91 e1       	ldi	r25, 0x11	; 17
 8ea:	21 50       	subi	r18, 0x01	; 1
 8ec:	80 40       	sbci	r24, 0x00	; 0
 8ee:	90 40       	sbci	r25, 0x00	; 0
 8f0:	e1 f7       	brne	.-8      	; 0x8ea <diagonalRectangle+0x18e>
 8f2:	00 c0       	rjmp	.+0      	; 0x8f4 <diagonalRectangle+0x198>
 8f4:	00 00       	nop
 8f6:	0e 94 4b 00 	call	0x96	; 0x96 <turnEverythingOff>
 8fa:	e0 e1       	ldi	r30, 0x10	; 16
 8fc:	f1 e0       	ldi	r31, 0x01	; 1
 8fe:	95 b1       	in	r25, 0x05	; 5
 900:	81 91       	ld	r24, Z+
 902:	80 95       	com	r24
 904:	89 23       	and	r24, r25
 906:	85 b9       	out	0x05, r24	; 5
 908:	8e 16       	cp	r8, r30
 90a:	9f 06       	cpc	r9, r31
 90c:	c1 f7       	brne	.-16     	; 0x8fe <diagonalRectangle+0x1a2>
 90e:	44 98       	cbi	0x08, 4	; 8
 910:	45 98       	cbi	0x08, 5	; 8
 912:	42 9a       	sbi	0x08, 2	; 8
 914:	43 9a       	sbi	0x08, 3	; 8
 916:	ef ef       	ldi	r30, 0xFF	; 255
 918:	f6 e1       	ldi	r31, 0x16	; 22
 91a:	21 e1       	ldi	r18, 0x11	; 17
 91c:	e1 50       	subi	r30, 0x01	; 1
 91e:	f0 40       	sbci	r31, 0x00	; 0
 920:	20 40       	sbci	r18, 0x00	; 0
 922:	e1 f7       	brne	.-8      	; 0x91c <__stack+0x1d>
 924:	00 c0       	rjmp	.+0      	; 0x926 <__stack+0x27>
 926:	00 00       	nop
 928:	0e 94 4b 00 	call	0x96	; 0x96 <turnEverythingOff>
 92c:	9b b1       	in	r25, 0x0b	; 11
 92e:	f5 01       	movw	r30, r10
 930:	81 91       	ld	r24, Z+
 932:	5f 01       	movw	r10, r30
 934:	80 95       	com	r24
 936:	89 23       	and	r24, r25
 938:	8b b9       	out	0x0b, r24	; 11
 93a:	ce 17       	cp	r28, r30
 93c:	df 07       	cpc	r29, r31
 93e:	b1 f7       	brne	.-20     	; 0x92c <__stack+0x2d>
 940:	e0 e1       	ldi	r30, 0x10	; 16
 942:	f1 e0       	ldi	r31, 0x01	; 1
 944:	95 b1       	in	r25, 0x05	; 5
 946:	81 91       	ld	r24, Z+
 948:	80 95       	com	r24
 94a:	89 23       	and	r24, r25
 94c:	85 b9       	out	0x05, r24	; 5
 94e:	0e 17       	cp	r16, r30
 950:	1f 07       	cpc	r17, r31
 952:	c1 f7       	brne	.-16     	; 0x944 <__stack+0x45>
 954:	42 9a       	sbi	0x08, 2	; 8
 956:	43 9a       	sbi	0x08, 3	; 8
 958:	ff ef       	ldi	r31, 0xFF	; 255
 95a:	26 e1       	ldi	r18, 0x16	; 22
 95c:	81 e1       	ldi	r24, 0x11	; 17
 95e:	f1 50       	subi	r31, 0x01	; 1
 960:	20 40       	sbci	r18, 0x00	; 0
 962:	80 40       	sbci	r24, 0x00	; 0
 964:	e1 f7       	brne	.-8      	; 0x95e <__stack+0x5f>
 966:	00 c0       	rjmp	.+0      	; 0x968 <__stack+0x69>
 968:	00 00       	nop
 96a:	0e 94 4b 00 	call	0x96	; 0x96 <turnEverythingOff>
 96e:	91 e0       	ldi	r25, 0x01	; 1
 970:	c9 1a       	sub	r12, r25
 972:	d1 08       	sbc	r13, r1
 974:	09 f0       	breq	.+2      	; 0x978 <__stack+0x79>
 976:	0d cf       	rjmp	.-486    	; 0x792 <diagonalRectangle+0x36>
 978:	9b b1       	in	r25, 0x0b	; 11
 97a:	f7 01       	movw	r30, r14
 97c:	81 91       	ld	r24, Z+
 97e:	7f 01       	movw	r14, r30
 980:	80 95       	com	r24
 982:	89 23       	and	r24, r25
 984:	8b b9       	out	0x0b, r24	; 11
 986:	6e 16       	cp	r6, r30
 988:	7f 06       	cpc	r7, r31
 98a:	b1 f7       	brne	.-20     	; 0x978 <__stack+0x79>
 98c:	43 9a       	sbi	0x08, 3	; 8
 98e:	42 9a       	sbi	0x08, 2	; 8
 990:	ff ef       	ldi	r31, 0xFF	; 255
 992:	26 e1       	ldi	r18, 0x16	; 22
 994:	81 e1       	ldi	r24, 0x11	; 17
 996:	f1 50       	subi	r31, 0x01	; 1
 998:	20 40       	sbci	r18, 0x00	; 0
 99a:	80 40       	sbci	r24, 0x00	; 0
 99c:	e1 f7       	brne	.-8      	; 0x996 <__stack+0x97>
 99e:	00 c0       	rjmp	.+0      	; 0x9a0 <__stack+0xa1>
 9a0:	00 00       	nop
 9a2:	df 91       	pop	r29
 9a4:	cf 91       	pop	r28
 9a6:	1f 91       	pop	r17
 9a8:	0f 91       	pop	r16
 9aa:	ff 90       	pop	r15
 9ac:	ef 90       	pop	r14
 9ae:	df 90       	pop	r13
 9b0:	cf 90       	pop	r12
 9b2:	bf 90       	pop	r11
 9b4:	af 90       	pop	r10
 9b6:	9f 90       	pop	r9
 9b8:	8f 90       	pop	r8
 9ba:	7f 90       	pop	r7
 9bc:	6f 90       	pop	r6
 9be:	0c 94 4b 00 	jmp	0x96	; 0x96 <turnEverythingOff>

000009c2 <propeller>:
 9c2:	ef 92       	push	r14
 9c4:	ff 92       	push	r15
 9c6:	0f 93       	push	r16
 9c8:	1f 93       	push	r17
 9ca:	cf 93       	push	r28
 9cc:	df 93       	push	r29
 9ce:	0e 94 4b 00 	call	0x96	; 0x96 <turnEverythingOff>
 9d2:	c4 e0       	ldi	r28, 0x04	; 4
 9d4:	d1 e0       	ldi	r29, 0x01	; 1
 9d6:	80 e0       	ldi	r24, 0x00	; 0
 9d8:	e8 2e       	mov	r14, r24
 9da:	81 e0       	ldi	r24, 0x01	; 1
 9dc:	f8 2e       	mov	r15, r24
 9de:	06 e0       	ldi	r16, 0x06	; 6
 9e0:	10 e0       	ldi	r17, 0x00	; 0
 9e2:	8b 81       	ldd	r24, Y+3	; 0x03
 9e4:	88 b9       	out	0x08, r24	; 8
 9e6:	0e 94 5f 00 	call	0xbe	; 0xbe <turnColumnsOff>
 9ea:	58 98       	cbi	0x0b, 0	; 11
 9ec:	5d 98       	cbi	0x0b, 5	; 11
 9ee:	2a 98       	cbi	0x05, 2	; 5
 9f0:	45 98       	cbi	0x08, 5	; 8
 9f2:	2f ef       	ldi	r18, 0xFF	; 255
 9f4:	84 e6       	ldi	r24, 0x64	; 100
 9f6:	94 e0       	ldi	r25, 0x04	; 4
 9f8:	21 50       	subi	r18, 0x01	; 1
 9fa:	80 40       	sbci	r24, 0x00	; 0
 9fc:	90 40       	sbci	r25, 0x00	; 0
 9fe:	e1 f7       	brne	.-8      	; 0x9f8 <propeller+0x36>
 a00:	00 c0       	rjmp	.+0      	; 0xa02 <propeller+0x40>
 a02:	00 00       	nop
 a04:	0e 94 5f 00 	call	0xbe	; 0xbe <turnColumnsOff>
 a08:	5c 98       	cbi	0x0b, 4	; 11
 a0a:	5d 98       	cbi	0x0b, 5	; 11
 a0c:	2a 98       	cbi	0x05, 2	; 5
 a0e:	2b 98       	cbi	0x05, 3	; 5
 a10:	2f ef       	ldi	r18, 0xFF	; 255
 a12:	84 e6       	ldi	r24, 0x64	; 100
 a14:	94 e0       	ldi	r25, 0x04	; 4
 a16:	21 50       	subi	r18, 0x01	; 1
 a18:	80 40       	sbci	r24, 0x00	; 0
 a1a:	90 40       	sbci	r25, 0x00	; 0
 a1c:	e1 f7       	brne	.-8      	; 0xa16 <propeller+0x54>
 a1e:	00 c0       	rjmp	.+0      	; 0xa20 <propeller+0x5e>
 a20:	00 00       	nop
 a22:	0e 94 5f 00 	call	0xbe	; 0xbe <turnColumnsOff>
 a26:	5e 98       	cbi	0x0b, 6	; 11
 a28:	5f 98       	cbi	0x0b, 7	; 11
 a2a:	28 98       	cbi	0x05, 0	; 5
 a2c:	29 98       	cbi	0x05, 1	; 5
 a2e:	2f ef       	ldi	r18, 0xFF	; 255
 a30:	84 e6       	ldi	r24, 0x64	; 100
 a32:	94 e0       	ldi	r25, 0x04	; 4
 a34:	21 50       	subi	r18, 0x01	; 1
 a36:	80 40       	sbci	r24, 0x00	; 0
 a38:	90 40       	sbci	r25, 0x00	; 0
 a3a:	e1 f7       	brne	.-8      	; 0xa34 <propeller+0x72>
 a3c:	00 c0       	rjmp	.+0      	; 0xa3e <propeller+0x7c>
 a3e:	00 00       	nop
 a40:	0e 94 5f 00 	call	0xbe	; 0xbe <turnColumnsOff>
 a44:	5b 98       	cbi	0x0b, 3	; 11
 a46:	5e 98       	cbi	0x0b, 6	; 11
 a48:	29 98       	cbi	0x05, 1	; 5
 a4a:	2c 98       	cbi	0x05, 4	; 5
 a4c:	2f ef       	ldi	r18, 0xFF	; 255
 a4e:	84 e6       	ldi	r24, 0x64	; 100
 a50:	94 e0       	ldi	r25, 0x04	; 4
 a52:	21 50       	subi	r18, 0x01	; 1
 a54:	80 40       	sbci	r24, 0x00	; 0
 a56:	90 40       	sbci	r25, 0x00	; 0
 a58:	e1 f7       	brne	.-8      	; 0xa52 <propeller+0x90>
 a5a:	00 c0       	rjmp	.+0      	; 0xa5c <propeller+0x9a>
 a5c:	00 00       	nop
 a5e:	0e 94 5f 00 	call	0xbe	; 0xbe <turnColumnsOff>
 a62:	5a 98       	cbi	0x0b, 2	; 11
 a64:	5e 98       	cbi	0x0b, 6	; 11
 a66:	29 98       	cbi	0x05, 1	; 5
 a68:	2d 98       	cbi	0x05, 5	; 5
 a6a:	2f ef       	ldi	r18, 0xFF	; 255
 a6c:	84 e6       	ldi	r24, 0x64	; 100
 a6e:	94 e0       	ldi	r25, 0x04	; 4
 a70:	21 50       	subi	r18, 0x01	; 1
 a72:	80 40       	sbci	r24, 0x00	; 0
 a74:	90 40       	sbci	r25, 0x00	; 0
 a76:	e1 f7       	brne	.-8      	; 0xa70 <propeller+0xae>
 a78:	00 c0       	rjmp	.+0      	; 0xa7a <propeller+0xb8>
 a7a:	00 00       	nop
 a7c:	0e 94 5f 00 	call	0xbe	; 0xbe <turnColumnsOff>
 a80:	59 98       	cbi	0x0b, 1	; 11
 a82:	5d 98       	cbi	0x0b, 5	; 11
 a84:	2a 98       	cbi	0x05, 2	; 5
 a86:	44 98       	cbi	0x08, 4	; 8
 a88:	2f ef       	ldi	r18, 0xFF	; 255
 a8a:	84 e6       	ldi	r24, 0x64	; 100
 a8c:	94 e0       	ldi	r25, 0x04	; 4
 a8e:	21 50       	subi	r18, 0x01	; 1
 a90:	80 40       	sbci	r24, 0x00	; 0
 a92:	90 40       	sbci	r25, 0x00	; 0
 a94:	e1 f7       	brne	.-8      	; 0xa8e <propeller+0xcc>
 a96:	00 c0       	rjmp	.+0      	; 0xa98 <propeller+0xd6>
 a98:	00 00       	nop
 a9a:	01 50       	subi	r16, 0x01	; 1
 a9c:	11 09       	sbc	r17, r1
 a9e:	09 f0       	breq	.+2      	; 0xaa2 <propeller+0xe0>
 aa0:	a0 cf       	rjmp	.-192    	; 0x9e2 <propeller+0x20>
 aa2:	21 97       	sbiw	r28, 0x01	; 1
 aa4:	ec 16       	cp	r14, r28
 aa6:	fd 06       	cpc	r15, r29
 aa8:	09 f0       	breq	.+2      	; 0xaac <propeller+0xea>
 aaa:	99 cf       	rjmp	.-206    	; 0x9de <propeller+0x1c>
 aac:	0e 94 5f 00 	call	0xbe	; 0xbe <turnColumnsOff>
 ab0:	58 98       	cbi	0x0b, 0	; 11
 ab2:	5d 98       	cbi	0x0b, 5	; 11
 ab4:	2a 98       	cbi	0x05, 2	; 5
 ab6:	45 98       	cbi	0x08, 5	; 8
 ab8:	2f ef       	ldi	r18, 0xFF	; 255
 aba:	84 e6       	ldi	r24, 0x64	; 100
 abc:	94 e0       	ldi	r25, 0x04	; 4
 abe:	21 50       	subi	r18, 0x01	; 1
 ac0:	80 40       	sbci	r24, 0x00	; 0
 ac2:	90 40       	sbci	r25, 0x00	; 0
 ac4:	e1 f7       	brne	.-8      	; 0xabe <propeller+0xfc>
 ac6:	00 c0       	rjmp	.+0      	; 0xac8 <propeller+0x106>
 ac8:	00 00       	nop
 aca:	df 91       	pop	r29
 acc:	cf 91       	pop	r28
 ace:	1f 91       	pop	r17
 ad0:	0f 91       	pop	r16
 ad2:	ff 90       	pop	r15
 ad4:	ef 90       	pop	r14
 ad6:	08 95       	ret

00000ad8 <main>:
 ad8:	8f ef       	ldi	r24, 0xFF	; 255
 ada:	8a b9       	out	0x0a, r24	; 10
 adc:	87 b1       	in	r24, 0x07	; 7
 ade:	8f 63       	ori	r24, 0x3F	; 63
 ae0:	87 b9       	out	0x07, r24	; 7
 ae2:	84 b1       	in	r24, 0x04	; 4
 ae4:	8f 63       	ori	r24, 0x3F	; 63
 ae6:	84 b9       	out	0x04, r24	; 4
 ae8:	0e 94 4b 00 	call	0x96	; 0x96 <turnEverythingOff>
 aec:	0e 94 66 00 	call	0xcc	; 0xcc <flickerOn>
 af0:	0e 94 51 00 	call	0xa2	; 0xa2 <turnEverythingOn>
 af4:	0e 94 85 00 	call	0x10a	; 0x10a <turnOnAndOffAllByLayerUpAndDownNotTimed>
 af8:	0e 94 7d 02 	call	0x4fa	; 0x4fa <layerstompUpAndDown>
 afc:	0e 94 ee 00 	call	0x1dc	; 0x1dc <turnOnAndOffAllByColumnSideways>
 b00:	0e 94 0f 03 	call	0x61e	; 0x61e <aroundEdgeDown>
 b04:	0e 94 4b 00 	call	0x96	; 0x96 <turnEverythingOff>
 b08:	0e 94 ae 03 	call	0x75c	; 0x75c <diagonalRectangle>
 b0c:	0e 94 e1 04 	call	0x9c2	; 0x9c2 <propeller>
 b10:	0e 94 ee 02 	call	0x5dc	; 0x5dc <flickerOff>
 b14:	0e 94 4b 00 	call	0x96	; 0x96 <turnEverythingOff>
 b18:	2f ef       	ldi	r18, 0xFF	; 255
 b1a:	83 e2       	ldi	r24, 0x23	; 35
 b1c:	94 ef       	ldi	r25, 0xF4	; 244
 b1e:	21 50       	subi	r18, 0x01	; 1
 b20:	80 40       	sbci	r24, 0x00	; 0
 b22:	90 40       	sbci	r25, 0x00	; 0
 b24:	e1 f7       	brne	.-8      	; 0xb1e <main+0x46>
 b26:	00 c0       	rjmp	.+0      	; 0xb28 <main+0x50>
 b28:	00 00       	nop
 b2a:	de cf       	rjmp	.-68     	; 0xae8 <main+0x10>

00000b2c <_exit>:
 b2c:	f8 94       	cli

00000b2e <__stop_program>:
 b2e:	ff cf       	rjmp	.-2      	; 0xb2e <__stop_program>
